

Microchip MPLAB XC8 Assembler V2.45 build 20230818022343 
                                                                                               Wed Oct 18 15:29:16 2023

Microchip MPLAB XC8 C Compiler v2.45 (Free license) build 20230818022343 Og1 
     1                           	processor	18F46K42
     2                           	fnconf	rparam,??,?,0
     3                           	pagewidth 120
     4                           	opt	flic
     5                           	psect	smallconst,global,reloc=2,class=SMALLCONST,delta=1,noexec
     6                           	psect	nvCOMRAM,global,class=COMRAM,space=1,delta=1,lowdata,noexec
     7                           	psect	cinit,global,reloc=2,class=CODE,delta=1
     8                           	psect	bssCOMRAM,global,class=COMRAM,space=1,delta=1,lowdata,noexec
     9                           	psect	bssBANK0,global,class=BANK0,space=1,delta=1,lowdata,noexec
    10                           	psect	cstackBANK0,global,class=BANK0,space=1,delta=1,lowdata,noexec
    11                           	psect	cstackCOMRAM,global,class=COMRAM,space=1,delta=1,lowdata,noexec
    12                           	psect	text0,global,reloc=2,class=CODE,delta=1
    13                           	psect	text1,global,reloc=2,class=CODE,delta=1,group=3
    14                           	psect	text2,global,reloc=2,class=CODE,delta=1,group=1
    15                           	psect	text3,global,reloc=2,class=CODE,delta=1,group=1
    16                           	psect	text4,global,reloc=2,class=CODE,delta=1,group=3
    17                           	psect	text5,global,reloc=2,class=CODE,delta=1
    18                           	psect	text6,global,reloc=2,class=CODE,delta=1
    19                           	psect	text7,global,reloc=2,class=CODE,delta=1
    20                           	psect	text8,global,reloc=2,class=CODE,delta=1
    21                           	psect	text9,global,reloc=2,class=CODE,delta=1
    22                           	psect	text10,global,reloc=2,class=CODE,delta=1
    23                           	psect	text11,global,reloc=2,class=CODE,delta=1
    24                           	psect	text12,global,reloc=2,class=CODE,delta=1
    25                           	psect	text13,global,reloc=2,class=CODE,delta=1
    26                           	psect	text14,global,reloc=2,class=CODE,delta=1
    27                           	psect	text15,global,reloc=2,class=CODE,delta=1
    28                           	psect	text16,global,reloc=2,class=CODE,delta=1
    29                           	psect	text17,global,reloc=2,class=CODE,delta=1
    30                           	psect	text18,global,reloc=2,class=CODE,delta=1
    31                           	psect	text19,global,reloc=2,class=CODE,delta=1
    32                           	psect	text20,global,reloc=2,class=CODE,delta=1
    33                           	psect	text21,global,reloc=2,class=CODE,delta=1
    34                           	psect	text22,global,reloc=2,class=CODE,delta=1
    35                           	psect	text23,global,reloc=2,class=CODE,delta=1
    36                           	psect	text24,global,reloc=2,class=CODE,delta=1,inline
    37                           	psect	text25,global,reloc=2,class=CODE,delta=1
    38                           	psect	text26,global,reloc=2,class=CODE,delta=1
    39                           	psect	text27,global,reloc=2,class=CODE,delta=1
    40                           	psect	text28,global,reloc=2,class=CODE,delta=1,inline
    41                           	psect	text29,global,reloc=2,class=CODE,delta=1,inline
    42                           	psect	text30,global,reloc=2,class=CODE,delta=1
    43                           	psect	text31,global,reloc=2,class=CODE,delta=1
    44                           	psect	text32,global,reloc=2,class=CODE,delta=1
    45                           	psect	text33,global,reloc=2,class=CODE,delta=1
    46                           	psect	text34,global,reloc=2,class=CODE,delta=1
    47                           	psect	text35,global,reloc=2,class=CODE,delta=1
    48                           	psect	text36,global,reloc=2,class=CODE,delta=1
    49                           	psect	text37,global,reloc=2,class=CODE,delta=1
    50                           	psect	text38,global,reloc=2,class=CODE,delta=1
    51                           	psect	text39,global,reloc=2,class=CODE,delta=1
    52                           	psect	text40,global,reloc=2,class=CODE,delta=1
    53                           	psect	text41,global,reloc=2,class=CODE,delta=1
    54                           	psect	text42,global,reloc=2,class=CODE,delta=1
    55                           	psect	text43,global,reloc=2,class=CODE,delta=1
    56                           	psect	text44,global,reloc=2,class=CODE,delta=1
    57                           	psect	text45,global,reloc=2,class=CODE,delta=1
    58                           	psect	text46,global,reloc=2,class=CODE,delta=1
    59                           	psect	text47,global,reloc=2,class=CODE,delta=1
    60                           	psect	text48,global,reloc=2,class=CODE,delta=1
    61                           	psect	text49,global,reloc=2,class=CODE,delta=1,inline
    62                           	psect	text50,global,reloc=2,class=CODE,delta=1,inline
    63                           	psect	text51,global,reloc=2,class=CODE,delta=1,inline
    64                           	psect	text52,global,reloc=2,class=CODE,delta=1,inline
    65                           	psect	text53,global,reloc=2,class=CODE,delta=1,inline
    66                           	psect	text54,global,reloc=2,class=CODE,delta=1,inline
    67                           	psect	text55,global,reloc=2,class=CODE,delta=1,inline
    68                           	psect	text56,global,reloc=2,class=CODE,delta=1,inline
    69                           	psect	text57,global,reloc=2,class=CODE,delta=1,inline
    70                           	psect	text58,global,reloc=2,class=CODE,delta=1,inline
    71                           	psect	text59,global,reloc=2,class=CODE,delta=1,inline
    72                           	psect	text60,global,reloc=2,class=CODE,delta=1,inline
    73                           	psect	text61,global,reloc=2,class=CODE,delta=1,inline
    74                           	psect	text62,global,reloc=2,class=CODE,delta=1
    75                           	psect	text63,global,reloc=2,class=CODE,delta=1
    76                           	psect	text64,global,reloc=2,class=CODE,delta=1
    77                           	psect	text65,global,reloc=2,class=CODE,delta=1
    78                           	psect	text66,global,reloc=2,class=CODE,delta=1
    79                           	psect	text67,global,reloc=2,class=CODE,delta=1
    80                           	psect	text68,global,reloc=2,class=CODE,delta=1
    81                           	psect	text69,global,reloc=2,class=CODE,delta=1
    82                           	psect	text70,global,reloc=2,class=CODE,delta=1
    83                           	psect	text71,global,reloc=2,class=CODE,delta=1
    84                           	psect	text72,global,reloc=2,class=CODE,delta=1,inline
    85                           	psect	text73,global,reloc=2,class=CODE,delta=1,inline
    86                           	psect	text74,global,reloc=2,class=CODE,delta=1,inline
    87                           	psect	text75,global,reloc=2,class=CODE,delta=1,inline
    88                           	psect	text76,global,reloc=2,class=CODE,delta=1,inline
    89                           	psect	text77,global,reloc=2,class=CODE,delta=1,inline
    90                           	psect	text78,global,reloc=2,class=CODE,delta=1,inline
    91                           	psect	text79,global,reloc=2,class=CODE,delta=1
    92                           	psect	text80,global,reloc=2,class=CODE,delta=1,inline
    93                           	psect	text81,global,reloc=2,class=CODE,delta=1,inline
    94                           	psect	text82,global,reloc=2,class=CODE,delta=1,inline
    95                           	psect	intsave_regs,global,class=BIGRAM,space=1,delta=1,noexec
    96                           	psect	text83,global,reloc=2,class=CODE,delta=1,inline
    97                           	psect	rparam,global,class=COMRAM,space=1,delta=1,noexec
    98                           	psect	config,global,abs,ovrld,class=CONFIG,space=4,delta=1,noexec
    99   000000                     
   100                           ; Generated 21/07/2023 GMT
   101                           ; 
   102                           ; Copyright © 2023, Microchip Technology Inc. and its subsidiaries ("Microchip")
   103                           ; All rights reserved.
   104                           ; 
   105                           ; This software is developed by Microchip Technology Inc. and its subsidiaries ("Microch
      +                          ip").
   106                           ; 
   107                           ; Redistribution and use in source and binary forms, with or without modification, are
   108                           ; permitted provided that the following conditions are met:
   109                           ; 
   110                           ;     1. Redistributions of source code must retain the above copyright notice, this lis
      +                          t of
   111                           ;        conditions and the following disclaimer.
   112                           ; 
   113                           ;     2. Redistributions in binary form must reproduce the above copyright notice, this 
      +                          list
   114                           ;        of conditions and the following disclaimer in the documentation and/or other
   115                           ;        materials provided with the distribution. Publication is not required when
   116                           ;        this file is used in an embedded application.
   117                           ; 
   118                           ;     3. Microchip's name may not be used to endorse or promote products derived from th
      +                          is
   119                           ;        software without specific prior written permission.
   120                           ; 
   121                           ; THIS SOFTWARE IS PROVIDED BY MICROCHIP "AS IS" AND ANY EXPRESS OR IMPLIED WARRANTIES,
   122                           ; INCLUDING, BUT NOT LIMITED TO, THE IMPLIED WARRANTIES OF MERCHANTABILITY AND FITNESS F
      +                          OR
   123                           ; PURPOSE ARE DISCLAIMED.  IN NO EVENT SHALL MICROCHIP BE LIABLE FOR ANY DIRECT, INDIREC
      +                          T,
   124                           ; INCIDENTAL, SPECIAL, EXEMPLARY, OR CONSEQUENTIAL DAMAGES (INCLUDING BUT NOT LIMITED TO
   125                           ; PROCUREMENT OF SUBSTITUTE GOODS OR SERVICES; LOSS OF USE, DATA OR PROFITS; OR BUSINESS
   126                           ; INTERRUPTION) HOWSOEVER CAUSED AND ON ANY THEORY OF LIABILITY, WHETHER IN CONTRACT, ST
      +                          RICT
   127                           ; LIABILITY, OR TORT (INCLUDING NEGLIGENCE OR OTHERWISE) ARISING IN ANY WAY OUT OF THE U
      +                          SE OF
   128                           ; THIS SOFTWARE, EVEN IF ADVISED OF THE POSSIBILITY OF SUCH DAMAGE.
   129                           ; 
   130                           ; 
   131                           ; Code-generator required, PIC18F46K42 Definitions
   132                           ; 
   133                           ; SFR Addresses
   134   000000                     
   135 ;; Function _UART1_DefaultFramingErrorHandler is unused but had its address taken
   136   000000                     
   137 ;; Function _UART1_DefaultOverrunErrorHandler is unused but had its address taken
   138   000000                     
   139 ;; Function _UART1_DefaultErrorHandler is unused but had its address taken
   140   000000                     
   141                           	psect	smallconst
   142   001000                     __psmallconst:
   143                           	callstack 0
   144   001000  00                 	db	0
   145   001001                     _i2c1_fsmStateTable:
   146                           	callstack 0
   147   001001  8A                 	db	low _I2C1_DO_IDLE
   148   001002  20                 	db	high _I2C1_DO_IDLE
   149   001003  D4                 	db	low _I2C1_DO_SEND_ADR_READ
   150   001004  1D                 	db	high _I2C1_DO_SEND_ADR_READ
   151   001005  0C                 	db	low _I2C1_DO_SEND_ADR_WRITE
   152   001006  20                 	db	high _I2C1_DO_SEND_ADR_WRITE
   153   001007  34                 	db	low _I2C1_DO_TX
   154   001008  12                 	db	high _I2C1_DO_TX
   155   001009  0E                 	db	low _I2C1_DO_RX
   156   00100A  16                 	db	high _I2C1_DO_RX
   157   00100B  34                 	db	low _I2C1_DO_TX_EMPTY
   158   00100C  17                 	db	high _I2C1_DO_TX_EMPTY
   159   00100D  72                 	db	low _I2C1_DO_RX_EMPTY
   160   00100E  15                 	db	high _I2C1_DO_RX_EMPTY
   161   00100F  4A                 	db	low _I2C1_DO_SEND_RESTART_READ
   162   001010  20                 	db	high _I2C1_DO_SEND_RESTART_READ
   163   001011  22                 	db	low _I2C1_DO_SEND_RESTART_WRITE
   164   001012  21                 	db	high _I2C1_DO_SEND_RESTART_WRITE
   165   001013  1E                 	db	low _I2C1_DO_SEND_RESTART
   166   001014  21                 	db	high _I2C1_DO_SEND_RESTART
   167   001015  28                 	db	low _I2C1_DO_SEND_STOP
   168   001016  1E                 	db	high _I2C1_DO_SEND_STOP
   169   001017  CA                 	db	low _I2C1_DO_RX_ACK
   170   001018  20                 	db	high _I2C1_DO_RX_ACK
   171   001019  D2                 	db	low _I2C1_DO_TX_ACK
   172   00101A  20                 	db	high _I2C1_DO_TX_ACK
   173   00101B  3C                 	db	low _I2C1_DO_RX_NACK_STOP
   174   00101C  20                 	db	high _I2C1_DO_RX_NACK_STOP
   175   00101D  C2                 	db	low _I2C1_DO_RX_NACK_RESTART
   176   00101E  20                 	db	high _I2C1_DO_RX_NACK_RESTART
   177   00101F  2E                 	db	low _I2C1_DO_RESET
   178   001020  20                 	db	high _I2C1_DO_RESET
   179   001021  D4                 	db	low _I2C1_DO_ADDRESS_NACK
   180   001022  19                 	db	high _I2C1_DO_ADDRESS_NACK
   181   001023  90                 	db	low _I2C1_DO_BUS_COLLISION
   182   001024  18                 	db	high _I2C1_DO_BUS_COLLISION
   183   001025  20                 	db	low _I2C1_DO_BUS_ERROR
   184   001026  20                 	db	high _I2C1_DO_BUS_ERROR
   185   001027                     __end_of_i2c1_fsmStateTable:
   186                           	callstack 0
   187   000000                     _TRISD	set	16325
   188   000000                     _TRISC	set	16324
   189   000000                     _TRISB	set	16323
   190   000000                     _LATC	set	16316
   191   000000                     _LATB	set	16315
   192   000000                     _OSCTUNE	set	14814
   193   000000                     _OSCFRQ	set	14815
   194   000000                     _I2C1TXB	set	15723
   195   000000                     _I2C1PIE	set	15738
   196   001027                     STR_2:
   197                           
   198                           ; BSR set to: 61
   199   001027  57                 	db	87	;'W'
   200   001028  72                 	db	114	;'r'
   201   001029  69                 	db	105	;'i'
   202   00102A  74                 	db	116	;'t'
   203   00102B  65                 	db	101	;'e'
   204   00102C  20                 	db	32
   205   00102D  6F                 	db	111	;'o'
   206   00102E  70                 	db	112	;'p'
   207   00102F  65                 	db	101	;'e'
   208   001030  72                 	db	114	;'r'
   209   001031  61                 	db	97	;'a'
   210   001032  74                 	db	116	;'t'
   211   001033  69                 	db	105	;'i'
   212   001034  6F                 	db	111	;'o'
   213   001035  6E                 	db	110	;'n'
   214   001036  20                 	db	32
   215   001037  73                 	db	115	;'s'
   216   001038  75                 	db	117	;'u'
   217   001039  63                 	db	99	;'c'
   218   00103A  63                 	db	99	;'c'
   219   00103B  65                 	db	101	;'e'
   220   00103C  73                 	db	115	;'s'
   221   00103D  73                 	db	115	;'s'
   222   00103E  66                 	db	102	;'f'
   223   00103F  75                 	db	117	;'u'
   224   001040  6C                 	db	108	;'l'
   225   001041  2E                 	db	46
   226   001042  0A                 	db	10
   227   001043  00                 	db	0
   228   001044                     STR_1:
   229                           
   230                           ; BSR set to: 61
   231   001044  44                 	db	68	;'D'
   232   001045  61                 	db	97	;'a'
   233   001046  74                 	db	116	;'t'
   234   001047  61                 	db	97	;'a'
   235   001048  20                 	db	32
   236   001049  77                 	db	119	;'w'
   237   00104A  72                 	db	114	;'r'
   238   00104B  69                 	db	105	;'i'
   239   00104C  74                 	db	116	;'t'
   240   00104D  74                 	db	116	;'t'
   241   00104E  65                 	db	101	;'e'
   242   00104F  6E                 	db	110	;'n'
   243   001050  20                 	db	32
   244   001051  74                 	db	116	;'t'
   245   001052  6F                 	db	111	;'o'
   246   001053  20                 	db	32
   247   001054  45                 	db	69	;'E'
   248   001055  45                 	db	69	;'E'
   249   001056  50                 	db	80	;'P'
   250   001057  52                 	db	82	;'R'
   251   001058  4F                 	db	79	;'O'
   252   001059  4D                 	db	77	;'M'
   253   00105A  2E                 	db	46
   254   00105B  0A                 	db	10
   255   00105C  00                 	db	0
   256   00105D                     STR_3:
   257                           
   258                           ; BSR set to: 61
   259   00105D  57                 	db	87	;'W'
   260   00105E  72                 	db	114	;'r'
   261   00105F  69                 	db	105	;'i'
   262   001060  74                 	db	116	;'t'
   263   001061  65                 	db	101	;'e'
   264   001062  20                 	db	32
   265   001063  6F                 	db	111	;'o'
   266   001064  70                 	db	112	;'p'
   267   001065  65                 	db	101	;'e'
   268   001066  72                 	db	114	;'r'
   269   001067  61                 	db	97	;'a'
   270   001068  74                 	db	116	;'t'
   271   001069  69                 	db	105	;'i'
   272   00106A  6F                 	db	111	;'o'
   273   00106B  6E                 	db	110	;'n'
   274   00106C  20                 	db	32
   275   00106D  66                 	db	102	;'f'
   276   00106E  61                 	db	97	;'a'
   277   00106F  69                 	db	105	;'i'
   278   001070  6C                 	db	108	;'l'
   279   001071  65                 	db	101	;'e'
   280   001072  64                 	db	100	;'d'
   281   001073  2E                 	db	46
   282   001074  0A                 	db	10
   283   001075  00                 	db	0
   284   001076                     STR_5:
   285                           
   286                           ; BSR set to: 61
   287   001076  50                 	db	80	;'P'
   288   001077  72                 	db	114	;'r'
   289   001078  6F                 	db	111	;'o'
   290   001079  67                 	db	103	;'g'
   291   00107A  72                 	db	114	;'r'
   292   00107B  61                 	db	97	;'a'
   293   00107C  6D                 	db	109	;'m'
   294   00107D  20                 	db	32
   295   00107E  69                 	db	105	;'i'
   296   00107F  73                 	db	115	;'s'
   297   001080  20                 	db	32
   298   001081  72                 	db	114	;'r'
   299   001082  75                 	db	117	;'u'
   300   001083  6E                 	db	110	;'n'
   301   001084  6E                 	db	110	;'n'
   302   001085  69                 	db	105	;'i'
   303   001086  6E                 	db	110	;'n'
   304   001087  67                 	db	103	;'g'
   305   001088  2E                 	db	46
   306   001089  2E                 	db	46
   307   00108A  2E                 	db	46
   308   00108B  0A                 	db	10
   309   00108C  00                 	db	0
   310   00108D                     STR_4:
   311                           
   312                           ; BSR set to: 61
   313   00108D  52                 	db	82	;'R'
   314   00108E  65                 	db	101	;'e'
   315   00108F  61                 	db	97	;'a'
   316   001090  64                 	db	100	;'d'
   317   001091  20                 	db	32
   318   001092  44                 	db	68	;'D'
   319   001093  61                 	db	97	;'a'
   320   001094  74                 	db	116	;'t'
   321   001095  61                 	db	97	;'a'
   322   001096  3A                 	db	58	;':'
   323   001097  20                 	db	32
   324   001098  25                 	db	37
   325   001099  58                 	db	88	;'X'
   326   00109A  0A                 	db	10
   327   00109B  00                 	db	0
   328   00109C  00                 	db	0	; dummy byte at the end
   329   000000                     
   330                           	psect	nvCOMRAM
   331   000058                     __pnvCOMRAM:
   332                           	callstack 0
   333   000058                     _UART1_ErrorHandler:
   334                           	callstack 0
   335   000058                     	ds	2
   336   00005A                     _UART1_OverrunErrorHandler:
   337                           	callstack 0
   338   00005A                     	ds	2
   339   00005C                     _UART1_FramingErrorHandler:
   340                           	callstack 0
   341   00005C                     	ds	2
   342   000000                     _I2C1PIEbits	set	15738
   343   000000                     _I2C1PIRbits	set	15737
   344   000000                     _I2C1ERRbits	set	15734
   345   000000                     _I2C1CON1bits	set	15732
   346   000000                     _I2C1CON0bits	set	15731
   347   000000                     _U1ERRIRbits	set	15865
   348   000000                     _U1CON0bits	set	15858
   349   000000                     _PIE2bits	set	14738
   350   000000                     _PIE3bits	set	14739
   351   000000                     _PIR3bits	set	14755
   352   000000                     _U1P1L	set	15852
   353   000000                     _LATA	set	16314
   354   000000                     _LATD	set	16317
   355   000000                     _LATE	set	16318
   356   000000                     _U1ERRIE	set	15866
   357   000000                     _U1ERRIR	set	15865
   358   000000                     _U1UIR	set	15864
   359   000000                     _U1FIFO	set	15863
   360   000000                     _U1BRGH	set	15862
   361   000000                     _U1BRGL	set	15861
   362   000000                     _U1CON2	set	15860
   363   000000                     _U1CON1	set	15859
   364   000000                     _U1CON0	set	15858
   365   000000                     _U1P3H	set	15857
   366   000000                     _U1P3L	set	15856
   367   000000                     _U1P2H	set	15855
   368   000000                     _U1P2L	set	15854
   369   000000                     _U1P1H	set	15853
   370   000000                     _PMD0	set	14784
   371   000000                     _OSCCON1	set	14809
   372   000000                     _RB1I2C	set	14938
   373   000000                     _I2C1CNT	set	15724
   374   000000                     _I2C1CON0	set	15731
   375   000000                     _U1RXB	set	15848
   376   000000                     _U1TXB	set	15850
   377   000000                     _I2C1STAT1bits	set	15736
   378   000000                     _I2C1ERR	set	15734
   379   000000                     _I2C1PIR	set	15737
   380   000000                     _I2C1CLK	set	15739
   381   000000                     _I2C1CON2	set	15733
   382   000000                     _I2C1CON1	set	15732
   383   000000                     _ANSELC	set	14944
   384   000000                     _ANSELD	set	14960
   385   000000                     _I2C1RXB	set	15722
   386   000000                     _RB2I2C	set	14939
   387   000000                     _PIR2bits	set	14754
   388   000000                     _OSCCON3	set	14811
   389   000000                     _OSCEN	set	14813
   390   000000                     _RB1PPS	set	14857
   391   000000                     _ANSELA	set	14912
   392   000000                     _ANSELB	set	14928
   393   000000                     _PMD7	set	14791
   394   000000                     _PMD6	set	14790
   395   000000                     _PMD5	set	14789
   396   000000                     _PMD4	set	14788
   397   000000                     _PMD3	set	14787
   398   000000                     _PMD2	set	14786
   399   000000                     _PMD1	set	14785
   400   000000                     _TRISA	set	16322
   401   000000                     _TRISE	set	16326
   402   000000                     _INLVLD	set	14964
   403   000000                     _SLRCOND	set	14963
   404   000000                     _ODCOND	set	14962
   405   000000                     _RD0I2C	set	14970
   406   000000                     _WPUD	set	14961
   407   000000                     _ANSELE	set	14976
   408   000000                     _INLVLC	set	14948
   409   000000                     _SLRCONC	set	14947
   410   000000                     _ODCONC	set	14946
   411   000000                     _RC3I2C	set	14954
   412   000000                     _WPUC	set	14945
   413   000000                     _INLVLB	set	14932
   414   000000                     _SLRCONB	set	14931
   415   000000                     _ODCONB	set	14930
   416   000000                     _WPUB	set	14929
   417   000000                     _I2C1SCLPPS	set	15073
   418   000000                     _I2C1SDAPPS	set	15074
   419   000000                     _INLVLE	set	14980
   420   000000                     _SLRCONE	set	14979
   421   000000                     _ODCONE	set	14978
   422   000000                     _WPUE	set	14977
   423   000000                     _INLVLA	set	14916
   424   000000                     _SLRCONA	set	14915
   425   000000                     _ODCONA	set	14914
   426   000000                     _WPUA	set	14913
   427   000000                     _RC4I2C	set	14955
   428   000000                     _RD1I2C	set	14971
   429   000000                     _U1RXPPS	set	15077
   430   000000                     _RC6PPS	set	14870
   431   000000                     _RB2PPS	set	14858
   432                           
   433                           ; #config settings
   434                           
   435                           	psect	cinit
   436   001EB8                     __pcinit:
   437                           	callstack 0
   438   001EB8                     start_initialization:
   439                           	callstack 0
   440   001EB8                     __initialization:
   441                           	callstack 0
   442                           
   443                           ; Clear objects allocated to BANK0 (32 bytes)
   444   001EB8  EE00  F094         	lfsr	0,__pbssBANK0
   445   001EBC  0E20               	movlw	32
   446   001EBE                     clear_0:
   447   001EBE  6AEE               	clrf	postinc0,c
   448   001EC0  06E8               	decf	wreg,f,c
   449   001EC2  E1FD               	bnz	clear_0
   450                           
   451                           ; Clear objects allocated to COMRAM (42 bytes)
   452   001EC4  EE00  F02E         	lfsr	0,__pbssCOMRAM
   453   001EC8  0E2A               	movlw	42
   454   001ECA                     clear_1:
   455   001ECA  6AEE               	clrf	postinc0,c
   456   001ECC  06E8               	decf	wreg,f,c
   457   001ECE  E1FD               	bnz	clear_1
   458   001ED0                     end_of_initialization:
   459                           	callstack 0
   460   001ED0                     __end_of__initialization:
   461                           	callstack 0
   462   001ED0  0100               	movlb	0
   463   001ED2  EFA9  F009         	goto	_main	;jump to C main() function
   464                           
   465                           	psect	bssCOMRAM
   466   00002E                     __pbssCOMRAM:
   467                           	callstack 0
   468   00002E                     _I2C1_Status:
   469                           	callstack 0
   470   00002E                     	ds	36
   471   000052                     _width:
   472                           	callstack 0
   473   000052                     	ds	2
   474   000054                     _prec:
   475                           	callstack 0
   476   000054                     	ds	2
   477   000056                     _flags:
   478                           	callstack 0
   479   000056                     	ds	1
   480   000057                     _uart1RxLastError:
   481                           	callstack 0
   482   000057                     	ds	1
   483                           
   484                           	psect	bssBANK0
   485   000094                     __pbssBANK0:
   486                           	callstack 0
   487   000094                     _dbuf:
   488                           	callstack 0
   489   000094                     	ds	32
   490                           
   491                           	psect	cstackBANK0
   492   000060                     __pcstackBANK0:
   493                           	callstack 0
   494   000060                     main@buffer:
   495                           	callstack 0
   496                           
   497                           ; 50 bytes @ 0x0
   498   000060                     	ds	50
   499   000092                     main@checkData:
   500                           	callstack 0
   501                           
   502                           ; 1 bytes @ 0x32
   503   000092                     	ds	1
   504   000093                     main@readData:
   505                           	callstack 0
   506                           
   507                           ; 1 bytes @ 0x33
   508   000093                     	ds	1
   509                           
   510                           	psect	cstackCOMRAM
   511   000001                     __pcstackCOMRAM:
   512                           	callstack 0
   513   000001                     UART1_Write@txData:
   514                           	callstack 0
   515   000001                     I2C1_Open@address:
   516                           	callstack 0
   517   000001                     I2C1_Close@returnValue:
   518                           	callstack 0
   519   000001                     I2C1_MasterSendTxData@data:
   520                           	callstack 0
   521   000001                     I2C1_MasterSetCounter@counter:
   522                           	callstack 0
   523   000001                     UART1_SetFramingErrorHandler@interruptHandler:
   524                           	callstack 0
   525   000001                     UART1_SetOverrunErrorHandler@interruptHandler:
   526                           	callstack 0
   527   000001                     UART1_SetErrorHandler@interruptHandler:
   528                           	callstack 0
   529   000001                     I2C1_SetBuffer@buffer:
   530                           	callstack 0
   531   000001                     I2C1_SetCallback@cb:
   532                           	callstack 0
   533                           
   534                           ; 2 bytes @ 0x0
   535   000001                     	ds	1
   536   000002                     putch@txData:
   537                           	callstack 0
   538   000002                     I2C1_Open@returnValue:
   539                           	callstack 0
   540   000002                     UART_SendString@str:
   541                           	callstack 0
   542                           
   543                           ; 2 bytes @ 0x1
   544   000002                     	ds	1
   545   000003                     I2C1_SetBuffer@bufferSize:
   546                           	callstack 0
   547   000003                     I2C1_SetCallback@ptr:
   548                           	callstack 0
   549   000003                     fputc@c:
   550                           	callstack 0
   551                           
   552                           ; 2 bytes @ 0x2
   553   000003                     	ds	1
   554   000004                     
   555                           ; 1 bytes @ 0x3
   556   000004                     	ds	1
   557   000005                     I2C1_SetCallback@idx:
   558                           	callstack 0
   559   000005                     fputc@fp:
   560                           	callstack 0
   561                           
   562                           ; 1 bytes @ 0x4
   563   000005                     	ds	1
   564   000006                     ??_fputc:
   565   000006                     I2C1_SetDataCompleteCallback@cb:
   566                           	callstack 0
   567   000006                     I2C1_SetAddressNackCallback@cb:
   568                           	callstack 0
   569                           
   570                           ; 2 bytes @ 0x5
   571   000006                     	ds	2
   572   000008                     I2C1_SetDataCompleteCallback@ptr:
   573                           	callstack 0
   574   000008                     I2C1_SetAddressNackCallback@ptr:
   575                           	callstack 0
   576                           
   577                           ; 2 bytes @ 0x7
   578   000008                     	ds	2
   579   00000A                     rd1RegCompleteHandler@ptr:
   580                           	callstack 0
   581   00000A                     rd2RegCompleteHandler@ptr:
   582                           	callstack 0
   583   00000A                     wr1RegCompleteHandler@ptr:
   584                           	callstack 0
   585   00000A                     wr2RegCompleteHandler@ptr:
   586                           	callstack 0
   587   00000A                     rdBlkRegCompleteHandler@ptr:
   588                           	callstack 0
   589   00000A                     I2C1_CallbackReturnReset@funPtr:
   590                           	callstack 0
   591                           
   592                           ; 2 bytes @ 0x9
   593   00000A                     	ds	1
   594   00000B                     vfpfcnvrt@fp:
   595                           	callstack 0
   596                           
   597                           ; 1 bytes @ 0xA
   598   00000B                     	ds	1
   599   00000C                     ??_rdBlkRegCompleteHandler:
   600   00000C                     vfpfcnvrt@fmt:
   601                           	callstack 0
   602                           
   603                           ; 1 bytes @ 0xB
   604   00000C                     	ds	1
   605   00000D                     ??_I2C1_DO_TX:
   606   00000D                     ??_I2C1_DO_TX_EMPTY:
   607   00000D                     ??_I2C1_DO_RX_EMPTY:
   608   00000D                     ??_I2C1_DO_ADDRESS_NACK:
   609   00000D                     ??_I2C1_DO_BUS_COLLISION:
   610   00000D                     vfpfcnvrt@ap:
   611                           	callstack 0
   612                           
   613                           ; 1 bytes @ 0xC
   614   00000D                     	ds	1
   615   00000E                     ??_vfpfcnvrt:
   616                           
   617                           ; 1 bytes @ 0xD
   618   00000E                     	ds	1
   619   00000F                     ??_I2C1_DO_RX:
   620   00000F                     _I2C1_DO_TX$1073:
   621                           	callstack 0
   622                           
   623                           ; 2 bytes @ 0xE
   624   00000F                     	ds	1
   625   000010                     vfpfcnvrt@convarg:
   626                           	callstack 0
   627                           
   628                           ; 4 bytes @ 0xF
   629   000010                     	ds	1
   630   000011                     I2C1_DO_TX@dataTx:
   631                           	callstack 0
   632   000011                     I2C1_DO_RX@retFsmState:
   633                           	callstack 0
   634                           
   635                           ; 1 bytes @ 0x10
   636   000011                     	ds	1
   637   000012                     I2C1_DO_TX@retFsmState:
   638                           	callstack 0
   639                           
   640                           ; 1 bytes @ 0x11
   641   000012                     	ds	1
   642   000013                     ??_I2C1_MasterFsm:
   643                           
   644                           ; 1 bytes @ 0x12
   645   000013                     	ds	1
   646   000014                     vfpfcnvrt@x:
   647                           	callstack 0
   648                           
   649                           ; 1 bytes @ 0x13
   650   000014                     	ds	1
   651   000015                     vfpfcnvrt@cp:
   652                           	callstack 0
   653                           
   654                           ; 1 bytes @ 0x14
   655   000015                     	ds	1
   656   000016                     I2C1_MasterOperation@read:
   657                           	callstack 0
   658   000016                     vfpfcnvrt@c:
   659                           	callstack 0
   660                           
   661                           ; 1 bytes @ 0x15
   662   000016                     	ds	1
   663   000017                     ?_vfprintf:
   664                           	callstack 0
   665   000017                     I2C1_MasterOperation@returnValue:
   666                           	callstack 0
   667   000017                     vfprintf@fp:
   668                           	callstack 0
   669                           
   670                           ; 1 bytes @ 0x16
   671   000017                     	ds	1
   672   000018                     I2C1_WriteNBytes@data:
   673                           	callstack 0
   674   000018                     I2C1_ReadNBytes@data:
   675                           	callstack 0
   676   000018                     vfprintf@fmt:
   677                           	callstack 0
   678                           
   679                           ; 1 bytes @ 0x17
   680   000018                     	ds	1
   681   000019                     vfprintf@ap:
   682                           	callstack 0
   683   000019                     I2C1_WriteNBytes@len:
   684                           	callstack 0
   685   000019                     I2C1_ReadNBytes@len:
   686                           	callstack 0
   687                           
   688                           ; 2 bytes @ 0x18
   689   000019                     	ds	1
   690   00001A                     vfprintf@cfmt:
   691                           	callstack 0
   692                           
   693                           ; 1 bytes @ 0x19
   694   00001A                     	ds	1
   695   00001B                     ?_sprintf:
   696                           	callstack 0
   697   00001B                     I2C1_WriteNBytes@address:
   698                           	callstack 0
   699   00001B                     I2C1_ReadNBytes@address:
   700                           	callstack 0
   701   00001B                     sprintf@s:
   702                           	callstack 0
   703                           
   704                           ; 1 bytes @ 0x1A
   705   00001B                     	ds	1
   706   00001C                     sprintf@fmt:
   707                           	callstack 0
   708   00001C                     EEPROM_WriteByte@memoryAddress:
   709                           	callstack 0
   710   00001C                     EEPROM_ReadByte@memoryAddress:
   711                           	callstack 0
   712                           
   713                           ; 2 bytes @ 0x1B
   714   00001C                     	ds	2
   715   00001E                     EEPROM_WriteByte@data:
   716                           	callstack 0
   717   00001E                     EEPROM_ReadByte@addressBuffer:
   718                           	callstack 0
   719                           
   720                           ; 2 bytes @ 0x1D
   721   00001E                     	ds	1
   722   00001F                     ??_EEPROM_WriteByte:
   723   00001F                     sprintf@ap:
   724                           	callstack 0
   725                           
   726                           ; 1 bytes @ 0x1E
   727   00001F                     	ds	1
   728   000020                     EEPROM_WriteByte@deviceAddress:
   729                           	callstack 0
   730   000020                     EEPROM_ReadByte@deviceAddress:
   731                           	callstack 0
   732   000020                     sprintf@f:
   733                           	callstack 0
   734                           
   735                           ; 12 bytes @ 0x1F
   736   000020                     	ds	1
   737   000021                     EEPROM_ReadByte@data:
   738                           	callstack 0
   739   000021                     EEPROM_WriteByte@buffer:
   740                           	callstack 0
   741                           
   742                           ; 3 bytes @ 0x20
   743   000021                     	ds	11
   744   00002C                     ??_main:
   745                           
   746                           ; 1 bytes @ 0x2B
   747   00002C                     	ds	2
   748                           
   749 ;;
   750 ;;Main: autosize = 0, tempsize = 2, incstack = 0, save=0
   751 ;;
   752 ;; *************** function _main *****************
   753 ;; Defined at:
   754 ;;		line 130 in file "main.c"
   755 ;; Parameters:    Size  Location     Type
   756 ;;		None
   757 ;; Auto vars:     Size  Location     Type
   758 ;;  buffer         50    0[BANK0 ] unsigned char [50]
   759 ;;  readData        1   51[BANK0 ] unsigned char 
   760 ;;  checkData       1   50[BANK0 ] unsigned char 
   761 ;; Return value:  Size  Location     Type
   762 ;;                  1    wreg      void 
   763 ;; Registers used:
   764 ;;		wreg, fsr0l, fsr0h, fsr1l, fsr1h, fsr2l, fsr2h, status,2, status,0, pcl, pclath, pclatu, tosl, tblptrl, tblptrh, tbl
      +ptru, prodl, prodh, cstack
   765 ;; Tracked objects:
   766 ;;		On entry : 0/0
   767 ;;		On exit  : 0/0
   768 ;;		Unchanged: 0/0
   769 ;; Data sizes:     COMRAM   BANK0   BANK1   BANK2   BANK3   BANK4   BANK5   BANK6   BANK7   BANK8   BANK9  BANK10  BANK1
      +1  BANK12  BANK13  BANK14  BANK15
   770 ;;      Params:         0       0       0       0       0       0       0       0       0       0       0       0       
      +0       0       0       0       0
   771 ;;      Locals:         0      52       0       0       0       0       0       0       0       0       0       0       
      +0       0       0       0       0
   772 ;;      Temps:          2       0       0       0       0       0       0       0       0       0       0       0       
      +0       0       0       0       0
   773 ;;      Totals:         2      52       0       0       0       0       0       0       0       0       0       0       
      +0       0       0       0       0
   774 ;;Total ram usage:       54 bytes
   775 ;; Hardware stack levels required when called: 13
   776 ;; This function calls:
   777 ;;		_EEPROM_ReadByte
   778 ;;		_EEPROM_WriteByte
   779 ;;		_SYSTEM_Initialize
   780 ;;		_UART_SendString
   781 ;;		_sprintf
   782 ;; This function is called by:
   783 ;;		Startup code after reset
   784 ;; This function uses a non-reentrant model
   785 ;;
   786                           
   787                           	psect	text0
   788   001352                     __ptext0:
   789                           	callstack 0
   790   001352                     _main:
   791                           	callstack 18
   792   001352                     
   793                           ;main.c: 131:     SYSTEM_Initialize();
   794   001352  ECB9  F00F         	call	_SYSTEM_Initialize	;wreg free
   795   001356                     l3570:
   796                           
   797                           ;main.c: 137:         EEPROM_WriteByte(0x50, 0x0010, 0xA5);
   798   001356  0E00               	movlw	0
   799   001358  6E1D               	movwf	(EEPROM_WriteByte@memoryAddress+1)^0,c
   800   00135A  0E10               	movlw	16
   801   00135C  6E1C               	movwf	EEPROM_WriteByte@memoryAddress^0,c
   802   00135E  0EA5               	movlw	165
   803   001360  6E1E               	movwf	EEPROM_WriteByte@data^0,c
   804   001362  0E50               	movlw	80
   805   001364  EC63  F00E         	call	_EEPROM_WriteByte
   806   001368                     
   807                           ;main.c: 138:         UART_SendString("Data written to EEPROM.\n");
   808   001368  0E44               	movlw	low STR_1
   809   00136A  6E02               	movwf	UART_SendString@str^0,c
   810   00136C  5002               	movf	UART_SendString@str^0,w,c
   811   00136E  A4D8               	btfss	status,2,c
   812   001370  0E10               	movlw	high __smallconst
   813   001372  6E03               	movwf	(UART_SendString@str+1)^0,c
   814   001374  ECD6  F00B         	call	_UART_SendString	;wreg free
   815   001378                     
   816                           ;main.c: 141:         uint8_t checkData = EEPROM_ReadByte(0x50, 0x0010);
   817   001378  0E00               	movlw	0
   818   00137A  6E1D               	movwf	(EEPROM_ReadByte@memoryAddress+1)^0,c
   819   00137C  0E10               	movlw	16
   820   00137E  6E1C               	movwf	EEPROM_ReadByte@memoryAddress^0,c
   821   001380  0E50               	movlw	80
   822   001382  EC2E  F00E         	call	_EEPROM_ReadByte
   823   001386  0100               	movlb	0	; () banked
   824   001388  6F92               	movwf	main@checkData& (0+255),b
   825   00138A                     
   826                           ; BSR set to: 0
   827                           ;main.c: 142:         if(checkData == 0xA5) {
   828   00138A  0EA5               	movlw	165
   829   00138C  1992               	xorwf	main@checkData& (0+255),w,b
   830   00138E  A4D8               	btfss	status,2,c
   831   001390  EFCC  F009         	goto	u1521
   832   001394  EFCE  F009         	goto	u1520
   833   001398                     u1521:
   834   001398  EFD8  F009         	goto	l3580
   835   00139C                     u1520:
   836   00139C                     
   837                           ; BSR set to: 0
   838                           ;main.c: 143:             UART_SendString("Write operation successful.\n");
   839   00139C  0E27               	movlw	low STR_2
   840   00139E  6E02               	movwf	UART_SendString@str^0,c
   841   0013A0  5002               	movf	UART_SendString@str^0,w,c
   842   0013A2  A4D8               	btfss	status,2,c
   843   0013A4  0E10               	movlw	high __smallconst
   844   0013A6  6E03               	movwf	(UART_SendString@str+1)^0,c
   845   0013A8  ECD6  F00B         	call	_UART_SendString	;wreg free
   846                           
   847                           ;main.c: 144:         } else {
   848   0013AC  EFE0  F009         	goto	l3582
   849   0013B0                     l3580:
   850                           
   851                           ; BSR set to: 0
   852                           ;main.c: 145:             UART_SendString("Write operation failed.\n");
   853   0013B0  0E5D               	movlw	low STR_3
   854   0013B2  6E02               	movwf	UART_SendString@str^0,c
   855   0013B4  5002               	movf	UART_SendString@str^0,w,c
   856   0013B6  A4D8               	btfss	status,2,c
   857   0013B8  0E10               	movlw	high __smallconst
   858   0013BA  6E03               	movwf	(UART_SendString@str+1)^0,c
   859   0013BC  ECD6  F00B         	call	_UART_SendString	;wreg free
   860   0013C0                     l3582:
   861                           
   862                           ;main.c: 149:         uint8_t readData = EEPROM_ReadByte(0x50, 0x0010);
   863   0013C0  0E00               	movlw	0
   864   0013C2  6E1D               	movwf	(EEPROM_ReadByte@memoryAddress+1)^0,c
   865   0013C4  0E10               	movlw	16
   866   0013C6  6E1C               	movwf	EEPROM_ReadByte@memoryAddress^0,c
   867   0013C8  0E50               	movlw	80
   868   0013CA  EC2E  F00E         	call	_EEPROM_ReadByte
   869   0013CE  0100               	movlb	0	; () banked
   870   0013D0  6F93               	movwf	main@readData& (0+255),b
   871   0013D2                     
   872                           ; BSR set to: 0
   873                           ;main.c: 152:         char buffer[50];;main.c: 153:         sprintf(buffer, "Read Data: 
      +                          %X\n", readData);
   874   0013D2  0E60               	movlw	low main@buffer
   875   0013D4  6E1B               	movwf	sprintf@s^0,c
   876   0013D6  0E8D               	movlw	low STR_4
   877   0013D8  6E1C               	movwf	sprintf@fmt^0,c
   878   0013DA  C093  F01D         	movff	main@readData,?_sprintf+2
   879   0013DE  6A1E               	clrf	(?_sprintf+3)^0,c
   880   0013E0  EC49  F00E         	call	_sprintf	;wreg free
   881   0013E4                     
   882                           ;main.c: 154:         UART_SendString(buffer);
   883   0013E4  0E60               	movlw	low main@buffer
   884   0013E6  6E02               	movwf	UART_SendString@str^0,c
   885   0013E8  6A03               	clrf	(UART_SendString@str+1)^0,c
   886   0013EA  ECD6  F00B         	call	_UART_SendString	;wreg free
   887   0013EE                     
   888                           ;main.c: 156:         UART_SendString("Program is running...\n");
   889   0013EE  0E76               	movlw	low STR_5
   890   0013F0  6E02               	movwf	UART_SendString@str^0,c
   891   0013F2  5002               	movf	UART_SendString@str^0,w,c
   892   0013F4  A4D8               	btfss	status,2,c
   893   0013F6  0E10               	movlw	high __smallconst
   894   0013F8  6E03               	movwf	(UART_SendString@str+1)^0,c
   895   0013FA  ECD6  F00B         	call	_UART_SendString	;wreg free
   896   0013FE                     
   897                           ;main.c: 157:         _delay((unsigned long)((1000)*(8000000/4000.0)));
   898   0013FE  0E0B               	movlw	11
   899   001400  6E2D               	movwf	(??_main+1)^0,c
   900   001402  0E26               	movlw	38
   901   001404  6E2C               	movwf	??_main^0,c
   902   001406  0E5E               	movlw	94
   903   001408                     u1537:
   904   001408  2EE8               	decfsz	wreg,f,c
   905   00140A  D7FE               	bra	u1537
   906   00140C  2E2C               	decfsz	??_main^0,f,c
   907   00140E  D7FC               	bra	u1537
   908   001410  2E2D               	decfsz	(??_main+1)^0,f,c
   909   001412  D7FA               	bra	u1537
   910   001414  EFAB  F009         	goto	l3570
   911   001418  EFFE  F07F         	goto	start
   912   00141C                     __end_of_main:
   913                           	callstack 0
   914                           
   915 ;; *************** function _sprintf *****************
   916 ;; Defined at:
   917 ;;		line 9 in file "C:\Program Files\Microchip\xc8\v2.45\pic\sources\c99\common\nf_sprintf.c"
   918 ;; Parameters:    Size  Location     Type
   919 ;;  s               1   26[COMRAM] PTR unsigned char 
   920 ;;		 -> main@buffer(50), 
   921 ;;  fmt             1   27[COMRAM] PTR const unsigned char 
   922 ;;		 -> STR_4(15), 
   923 ;; Auto vars:     Size  Location     Type
   924 ;;  f              12   31[COMRAM] struct _IO_FILE
   925 ;;  ret             2    0        int 
   926 ;;  ap              1   30[COMRAM] PTR void [1]
   927 ;;		 -> ?_sprintf(2), 
   928 ;; Return value:  Size  Location     Type
   929 ;;                  2   26[COMRAM] int 
   930 ;; Registers used:
   931 ;;		wreg, fsr1l, fsr1h, fsr2l, fsr2h, status,2, status,0, tblptrl, tblptrh, tblptru, cstack
   932 ;; Tracked objects:
   933 ;;		On entry : 0/0
   934 ;;		On exit  : 0/0
   935 ;;		Unchanged: 0/0
   936 ;; Data sizes:     COMRAM   BANK0   BANK1   BANK2   BANK3   BANK4   BANK5   BANK6   BANK7   BANK8   BANK9  BANK10  BANK1
      +1  BANK12  BANK13  BANK14  BANK15
   937 ;;      Params:         4       0       0       0       0       0       0       0       0       0       0       0       
      +0       0       0       0       0
   938 ;;      Locals:        13       0       0       0       0       0       0       0       0       0       0       0       
      +0       0       0       0       0
   939 ;;      Temps:          0       0       0       0       0       0       0       0       0       0       0       0       
      +0       0       0       0       0
   940 ;;      Totals:        17       0       0       0       0       0       0       0       0       0       0       0       
      +0       0       0       0       0
   941 ;;Total ram usage:       17 bytes
   942 ;; Hardware stack levels used: 1
   943 ;; Hardware stack levels required when called: 5
   944 ;; This function calls:
   945 ;;		_vfprintf
   946 ;; This function is called by:
   947 ;;		_main
   948 ;; This function uses a non-reentrant model
   949 ;;
   950                           
   951                           	psect	text1
   952   001C92                     __ptext1:
   953                           	callstack 0
   954   001C92                     _sprintf:
   955                           	callstack 25
   956   001C92  0E1D               	movlw	low (?_sprintf+2)
   957   001C94  6E1F               	movwf	sprintf@ap^0,c
   958   001C96  C01B  F020         	movff	sprintf@s,sprintf@f
   959   001C9A  0E00               	movlw	0
   960   001C9C  6E24               	movwf	(sprintf@f+4)^0,c
   961   001C9E  0E00               	movlw	0
   962   001CA0  6E23               	movwf	(sprintf@f+3)^0,c
   963   001CA2  0E00               	movlw	0
   964   001CA4  6E2B               	movwf	(sprintf@f+11)^0,c
   965   001CA6  0E00               	movlw	0
   966   001CA8  6E2A               	movwf	(sprintf@f+10)^0,c
   967   001CAA  0E20               	movlw	low sprintf@f
   968   001CAC  6E17               	movwf	vfprintf@fp^0,c
   969   001CAE  C01C  F018         	movff	sprintf@fmt,vfprintf@fmt
   970   001CB2  0E1F               	movlw	low sprintf@ap
   971   001CB4  6E19               	movwf	vfprintf@ap^0,c
   972   001CB6  EC0D  F00E         	call	_vfprintf	;wreg free
   973   001CBA  501B               	movf	sprintf@s^0,w,c
   974   001CBC  2423               	addwf	(sprintf@f+3)^0,w,c
   975   001CBE  6ED9               	movwf	fsr2l,c
   976   001CC0  6ADA               	clrf	fsr2h,c
   977   001CC2  6ADF               	clrf	indf2,c
   978   001CC4  0012               	return		;funcret
   979   001CC6                     __end_of_sprintf:
   980                           	callstack 0
   981                           
   982 ;; *************** function _vfprintf *****************
   983 ;; Defined at:
   984 ;;		line 1817 in file "C:\Program Files\Microchip\xc8\v2.45\pic\sources\c99\common\doprnt.c"
   985 ;; Parameters:    Size  Location     Type
   986 ;;  fp              1   22[COMRAM] PTR struct _IO_FILE
   987 ;;		 -> sprintf@f(12), 
   988 ;;  fmt             1   23[COMRAM] PTR const unsigned char 
   989 ;;		 -> STR_4(15), 
   990 ;;  ap              1   24[COMRAM] PTR PTR void 
   991 ;;		 -> sprintf@ap(1), 
   992 ;; Auto vars:     Size  Location     Type
   993 ;;  cfmt            1   25[COMRAM] PTR unsigned char 
   994 ;;		 -> STR_4(15), 
   995 ;; Return value:  Size  Location     Type
   996 ;;                  2   22[COMRAM] int 
   997 ;; Registers used:
   998 ;;		wreg, fsr1l, fsr1h, fsr2l, fsr2h, status,2, status,0, tblptrl, tblptrh, tblptru, cstack
   999 ;; Tracked objects:
  1000 ;;		On entry : 0/0
  1001 ;;		On exit  : 0/0
  1002 ;;		Unchanged: 0/0
  1003 ;; Data sizes:     COMRAM   BANK0   BANK1   BANK2   BANK3   BANK4   BANK5   BANK6   BANK7   BANK8   BANK9  BANK10  BANK1
      +1  BANK12  BANK13  BANK14  BANK15
  1004 ;;      Params:         3       0       0       0       0       0       0       0       0       0       0       0       
      +0       0       0       0       0
  1005 ;;      Locals:         1       0       0       0       0       0       0       0       0       0       0       0       
      +0       0       0       0       0
  1006 ;;      Temps:          0       0       0       0       0       0       0       0       0       0       0       0       
      +0       0       0       0       0
  1007 ;;      Totals:         4       0       0       0       0       0       0       0       0       0       0       0       
      +0       0       0       0       0
  1008 ;;Total ram usage:        4 bytes
  1009 ;; Hardware stack levels used: 1
  1010 ;; Hardware stack levels required when called: 4
  1011 ;; This function calls:
  1012 ;;		_vfpfcnvrt
  1013 ;; This function is called by:
  1014 ;;		_sprintf
  1015 ;; This function uses a non-reentrant model
  1016 ;;
  1017                           
  1018                           	psect	text2
  1019   001C1A                     __ptext2:
  1020                           	callstack 0
  1021   001C1A                     _vfprintf:
  1022                           	callstack 25
  1023   001C1A                     
  1024                           ;C:\Program Files\Microchip\xc8\v2.45\pic\sources\c99\common\doprnt.c: 1817: int vfprint
      +                          f(FILE *fp, const char *fmt, va_list ap);C:\Program Files\Microchip\xc8\v2.45\pic\source
      +                          s\c99\common\doprnt.c: 1818: {;C:\Program Files\Microchip\xc8\v2.45\pic\sources\c99\comm
      +                          on\doprnt.c: 1820:     char *cfmt;;C:\Program Files\Microchip\xc8\v2.45\pic\sources\c99\
      +                          common\doprnt.c: 1822:     cfmt = (char *)fmt;
  1025   001C1A  C018  F01A         	movff	vfprintf@fmt,vfprintf@cfmt
  1026                           
  1027                           ;C:\Program Files\Microchip\xc8\v2.45\pic\sources\c99\common\doprnt.c: 1826:     while (
      +                          *cfmt) {
  1028   001C1E  EF19  F00E         	goto	l3402
  1029   001C22                     l3400:
  1030                           
  1031                           ;C:\Program Files\Microchip\xc8\v2.45\pic\sources\c99\common\doprnt.c: 1830:    vfpfcnvr
      +                          t(fp, &cfmt, ap);
  1032   001C22  C017  F00B         	movff	vfprintf@fp,vfpfcnvrt@fp
  1033   001C26  0E1A               	movlw	low vfprintf@cfmt
  1034   001C28  6E0C               	movwf	vfpfcnvrt@fmt^0,c
  1035   001C2A  C019  F00D         	movff	vfprintf@ap,vfpfcnvrt@ap
  1036   001C2E  EC4F  F008         	call	_vfpfcnvrt	;wreg free
  1037   001C32                     l3402:
  1038                           
  1039                           ;C:\Program Files\Microchip\xc8\v2.45\pic\sources\c99\common\doprnt.c: 1826:     while (
      +                          *cfmt) {
  1040   001C32  0060  F06B  FFF6   	movff	vfprintf@cfmt,tblptrl
  1041   001C38                     	if	1	;There is more than 1 active tblptr byte
  1042   001C38  0E10               	movlw	high __smallconst
  1043   001C3A  6EF7               	movwf	tblptrh,c
  1044   001C3C                     	endif
  1045   001C3C                     	if	1	;Program memory is < 0x10000, tblptru is always zero
  1046   001C3C  6AF8               	clrf	tblptru,c
  1047   001C3E                     	endif
  1048   001C3E                     	if	0	;tblptru may be non-zero
  1049   001C3E                     	endif
  1050   001C3E  0008               	tblrd		*
  1051   001C40  50F5               	movf	tablat,w,c
  1052   001C42  0900               	iorlw	0
  1053   001C44  A4D8               	btfss	status,2,c
  1054   001C46  EF27  F00E         	goto	u1381
  1055   001C4A  EF29  F00E         	goto	u1380
  1056   001C4E                     u1381:
  1057   001C4E  EF11  F00E         	goto	l3400
  1058   001C52                     u1380:
  1059   001C52                     
  1060                           ;C:\Program Files\Microchip\xc8\v2.45\pic\sources\c99\common\doprnt.c: 1835:  return 0;
  1061   001C52  0E00               	movlw	0
  1062   001C54  6E18               	movwf	(?_vfprintf+1)^0,c
  1063   001C56  0E00               	movlw	0
  1064   001C58  6E17               	movwf	?_vfprintf^0,c
  1065   001C5A  0012               	return		;funcret
  1066   001C5C                     __end_of_vfprintf:
  1067                           	callstack 0
  1068                           
  1069 ;; *************** function _vfpfcnvrt *****************
  1070 ;; Defined at:
  1071 ;;		line 1177 in file "C:\Program Files\Microchip\xc8\v2.45\pic\sources\c99\common\doprnt.c"
  1072 ;; Parameters:    Size  Location     Type
  1073 ;;  fp              1   10[COMRAM] PTR struct _IO_FILE
  1074 ;;		 -> sprintf@f(12), 
  1075 ;;  fmt             1   11[COMRAM] PTR PTR unsigned char 
  1076 ;;		 -> vfprintf@cfmt(1), 
  1077 ;;  ap              1   12[COMRAM] PTR PTR void 
  1078 ;;		 -> sprintf@ap(1), 
  1079 ;; Auto vars:     Size  Location     Type
  1080 ;;  convarg         4   15[COMRAM] struct .
  1081 ;;  c               1   21[COMRAM] unsigned char 
  1082 ;;  cp              1   20[COMRAM] PTR unsigned char 
  1083 ;;		 -> STR_4(15), 
  1084 ;;  x               1   19[COMRAM] unsigned char 
  1085 ;;  done            1    0        _Bool 
  1086 ;; Return value:  Size  Location     Type
  1087 ;;                  1    wreg      void 
  1088 ;; Registers used:
  1089 ;;		wreg, fsr1l, fsr1h, fsr2l, fsr2h, status,2, status,0, tblptrl, tblptrh, tblptru, cstack
  1090 ;; Tracked objects:
  1091 ;;		On entry : 0/0
  1092 ;;		On exit  : 0/0
  1093 ;;		Unchanged: 0/0
  1094 ;; Data sizes:     COMRAM   BANK0   BANK1   BANK2   BANK3   BANK4   BANK5   BANK6   BANK7   BANK8   BANK9  BANK10  BANK1
      +1  BANK12  BANK13  BANK14  BANK15
  1095 ;;      Params:         3       0       0       0       0       0       0       0       0       0       0       0       
      +0       0       0       0       0
  1096 ;;      Locals:         7       0       0       0       0       0       0       0       0       0       0       0       
      +0       0       0       0       0
  1097 ;;      Temps:          2       0       0       0       0       0       0       0       0       0       0       0       
      +0       0       0       0       0
  1098 ;;      Totals:        12       0       0       0       0       0       0       0       0       0       0       0       
      +0       0       0       0       0
  1099 ;;Total ram usage:       12 bytes
  1100 ;; Hardware stack levels used: 1
  1101 ;; Hardware stack levels required when called: 3
  1102 ;; This function calls:
  1103 ;;		_fputc
  1104 ;; This function is called by:
  1105 ;;		_vfprintf
  1106 ;; This function uses a non-reentrant model
  1107 ;;
  1108                           
  1109                           	psect	text3
  1110   00109E                     __ptext3:
  1111                           	callstack 0
  1112   00109E                     _vfpfcnvrt:
  1113                           	callstack 25
  1114   00109E                     
  1115                           ;C:\Program Files\Microchip\xc8\v2.45\pic\sources\c99\common\doprnt.c: 1177: vfpfcnvrt(F
      +                          ILE *fp, char *fmt[], va_list ap);C:\Program Files\Microchip\xc8\v2.45\pic\sources\c99\c
      +                          ommon\doprnt.c: 1178: {;C:\Program Files\Microchip\xc8\v2.45\pic\sources\c99\common\dopr
      +                          nt.c: 1179:     char c, *cp;;C:\Program Files\Microchip\xc8\v2.45\pic\sources\c99\common
      +                          \doprnt.c: 1180:     _Bool done;;C:\Program Files\Microchip\xc8\v2.45\pic\sources\c99\co
      +                          mmon\doprnt.c: 1188:  } convarg;;C:\Program Files\Microchip\xc8\v2.45\pic\sources\c99\co
      +                          mmon\doprnt.c: 1194:  char x;
  1116   00109E  500C               	movf	vfpfcnvrt@fmt^0,w,c
  1117   0010A0  6ED9               	movwf	fsr2l,c
  1118   0010A2  6ADA               	clrf	fsr2h,c
  1119   0010A4  006F FF7F FFF6     	movff	indf2,tblptrl
  1120   0010AA                     	if	1	;There is more than 1 active tblptr byte
  1121   0010AA  0E10               	movlw	high __smallconst
  1122   0010AC  6EF7               	movwf	tblptrh,c
  1123   0010AE                     	endif
  1124   0010AE                     	if	1	;Program memory is < 0x10000, tblptru is always zero
  1125   0010AE  6AF8               	clrf	tblptru,c
  1126   0010B0                     	endif
  1127   0010B0                     	if	0	;tblptru may be non-zero
  1128   0010B0                     	endif
  1129   0010B0  0008               	tblrd		*
  1130   0010B2  50F5               	movf	tablat,w,c
  1131   0010B4  0A25               	xorlw	37
  1132   0010B6  A4D8               	btfss	status,2,c
  1133   0010B8  EF60  F008         	goto	u1281
  1134   0010BC  EF62  F008         	goto	u1280
  1135   0010C0                     u1281:
  1136   0010C0  EF06  F009         	goto	l3322
  1137   0010C4                     u1280:
  1138   0010C4                     
  1139                           ;C:\Program Files\Microchip\xc8\v2.45\pic\sources\c99\common\doprnt.c: 1202:         ++*
      +                          fmt;
  1140   0010C4  500C               	movf	vfpfcnvrt@fmt^0,w,c
  1141   0010C6  6ED9               	movwf	fsr2l,c
  1142   0010C8  6ADA               	clrf	fsr2h,c
  1143   0010CA  2ADF               	incf	indf2,f,c
  1144   0010CC                     
  1145                           ;C:\Program Files\Microchip\xc8\v2.45\pic\sources\c99\common\doprnt.c: 1204:         fla
      +                          gs = width = 0;
  1146   0010CC  0E00               	movlw	0
  1147   0010CE  6E53               	movwf	(_width+1)^0,c
  1148   0010D0  0E00               	movlw	0
  1149   0010D2  6E52               	movwf	_width^0,c
  1150   0010D4  C052  F056         	movff	_width,_flags
  1151   0010D8                     
  1152                           ;C:\Program Files\Microchip\xc8\v2.45\pic\sources\c99\common\doprnt.c: 1205:         pre
      +                          c = -1;
  1153   0010D8  6854               	setf	_prec^0,c
  1154   0010DA  6855               	setf	(_prec+1)^0,c
  1155   0010DC                     
  1156                           ;C:\Program Files\Microchip\xc8\v2.45\pic\sources\c99\common\doprnt.c: 1439:   if (0
  1157   0010DC  500C               	movf	vfpfcnvrt@fmt^0,w,c
  1158   0010DE  6ED9               	movwf	fsr2l,c
  1159   0010E0  6ADA               	clrf	fsr2h,c
  1160   0010E2  50DF               	movf	indf2,w,c
  1161   0010E4  6E15               	movwf	vfpfcnvrt@cp^0,c
  1162   0010E6  0060  F057  FFF6   	movff	vfpfcnvrt@cp,tblptrl
  1163   0010EC                     	if	1	;There is more than 1 active tblptr byte
  1164   0010EC  0E10               	movlw	high __smallconst
  1165   0010EE  6EF7               	movwf	tblptrh,c
  1166   0010F0                     	endif
  1167   0010F0                     	if	1	;Program memory is < 0x10000, tblptru is always zero
  1168   0010F0  6AF8               	clrf	tblptru,c
  1169   0010F2                     	endif
  1170   0010F2                     	if	0	;tblptru may be non-zero
  1171   0010F2                     	endif
  1172   0010F2  0008               	tblrd		*
  1173   0010F4  50F5               	movf	tablat,w,c
  1174   0010F6  0A58               	xorlw	88
  1175   0010F8  A4D8               	btfss	status,2,c
  1176   0010FA  EF81  F008         	goto	u1291
  1177   0010FE  EF83  F008         	goto	u1290
  1178   001102                     u1291:
  1179   001102  EF00  F009         	goto	l3318
  1180   001106                     u1290:
  1181   001106                     
  1182                           ;C:\Program Files\Microchip\xc8\v2.45\pic\sources\c99\common\doprnt.c: 1452:     ) {;C:\
      +                          Program Files\Microchip\xc8\v2.45\pic\sources\c99\common\doprnt.c: 1495:    convarg.uint
      +                           = (vfpf_uint_t)(unsigned int)(*(unsigned int *)__va_arg(*(unsigned int **)ap, (unsigned
      +                           int)0));
  1183   001106  500D               	movf	vfpfcnvrt@ap^0,w,c
  1184   001108  6ED9               	movwf	fsr2l,c
  1185   00110A  6ADA               	clrf	fsr2h,c
  1186   00110C  0E02               	movlw	2
  1187   00110E  26DF               	addwf	indf2,f,c
  1188   001110  5CDF               	subwf	indf2,w,c
  1189   001112  6ED9               	movwf	fsr2l,c
  1190   001114  6ADA               	clrf	fsr2h,c
  1191   001116  006F FF78  F010    	movff	postinc2,vfpfcnvrt@convarg
  1192   00111C  006F FF78  F011    	movff	postinc2,vfpfcnvrt@convarg+1
  1193   001122                     
  1194                           ;C:\Program Files\Microchip\xc8\v2.45\pic\sources\c99\common\doprnt.c: 1497:    *fmt = c
      +                          p+1;
  1195   001122  500C               	movf	vfpfcnvrt@fmt^0,w,c
  1196   001124  6ED9               	movwf	fsr2l,c
  1197   001126  6ADA               	clrf	fsr2h,c
  1198   001128  2815               	incf	vfpfcnvrt@cp^0,w,c
  1199   00112A  6EDF               	movwf	indf2,c
  1200                           
  1201                           ;C:\Program Files\Microchip\xc8\v2.45\pic\sources\c99\common\doprnt.c: 1498:    switch (
      +                          *cp) {
  1202   00112C  EFE8  F008         	goto	l3316
  1203   001130                     l3290:
  1204                           
  1205                           ;C:\Program Files\Microchip\xc8\v2.45\pic\sources\c99\common\doprnt.c: 1553:      c = si
      +                          zeof(dbuf);
  1206   001130  0E20               	movlw	32
  1207   001132  6E16               	movwf	vfpfcnvrt@c^0,c
  1208   001134                     l3292:
  1209                           
  1210                           ;C:\Program Files\Microchip\xc8\v2.45\pic\sources\c99\common\doprnt.c: 1558:       x = (
      +                          convarg.uint & 0xf);
  1211   001134  5010               	movf	vfpfcnvrt@convarg^0,w,c
  1212   001136  0B0F               	andlw	15
  1213   001138  6E14               	movwf	vfpfcnvrt@x^0,c
  1214   00113A                     
  1215                           ;C:\Program Files\Microchip\xc8\v2.45\pic\sources\c99\common\doprnt.c: 1559:       if (x
      +                           < 10) {
  1216   00113A  0E0A               	movlw	10
  1217   00113C  6014               	cpfslt	vfpfcnvrt@x^0,c
  1218   00113E  EFA3  F008         	goto	u1301
  1219   001142  EFA5  F008         	goto	u1300
  1220   001146                     u1301:
  1221   001146  EFA9  F008         	goto	l3298
  1222   00114A                     u1300:
  1223   00114A                     
  1224                           ;C:\Program Files\Microchip\xc8\v2.45\pic\sources\c99\common\doprnt.c: 1560:        x +=
      +                           '0';
  1225   00114A  0E30               	movlw	48
  1226   00114C  2614               	addwf	vfpfcnvrt@x^0,f,c
  1227                           
  1228                           ;C:\Program Files\Microchip\xc8\v2.45\pic\sources\c99\common\doprnt.c: 1561:       }
  1229   00114E  EFAB  F008         	goto	l3300
  1230   001152                     l3298:
  1231                           
  1232                           ;C:\Program Files\Microchip\xc8\v2.45\pic\sources\c99\common\doprnt.c: 1568:        x +=
      +                           'A' - 10;
  1233   001152  0E37               	movlw	55
  1234   001154  2614               	addwf	vfpfcnvrt@x^0,f,c
  1235   001156                     l3300:
  1236                           
  1237                           ;C:\Program Files\Microchip\xc8\v2.45\pic\sources\c99\common\doprnt.c: 1571:       dbuf[
      +                          --c] = x;
  1238   001156  0616               	decf	vfpfcnvrt@c^0,f,c
  1239   001158  5016               	movf	vfpfcnvrt@c^0,w,c
  1240   00115A  0F94               	addlw	low _dbuf
  1241   00115C  6ED9               	movwf	fsr2l,c
  1242   00115E  6ADA               	clrf	fsr2h,c
  1243   001160  0060  F053  FFDF   	movff	vfpfcnvrt@x,indf2
  1244   001166                     
  1245                           ;C:\Program Files\Microchip\xc8\v2.45\pic\sources\c99\common\doprnt.c: 1572:       conva
      +                          rg.uint >>= 4;
  1246   001166  3A10               	swapf	vfpfcnvrt@convarg^0,f,c
  1247   001168  3A11               	swapf	(vfpfcnvrt@convarg+1)^0,f,c
  1248   00116A  0E0F               	movlw	15
  1249   00116C  1610               	andwf	vfpfcnvrt@convarg^0,f,c
  1250   00116E  5011               	movf	(vfpfcnvrt@convarg+1)^0,w,c
  1251   001170  0BF0               	andlw	240
  1252   001172  1210               	iorwf	vfpfcnvrt@convarg^0,f,c
  1253   001174  0E0F               	movlw	15
  1254   001176  1611               	andwf	(vfpfcnvrt@convarg+1)^0,f,c
  1255   001178                     
  1256                           ;C:\Program Files\Microchip\xc8\v2.45\pic\sources\c99\common\doprnt.c: 1576:      } whil
      +                          e (convarg.uint != 0 && c != 0);
  1257   001178  5010               	movf	vfpfcnvrt@convarg^0,w,c
  1258   00117A  1011               	iorwf	(vfpfcnvrt@convarg+1)^0,w,c
  1259   00117C  B4D8               	btfsc	status,2,c
  1260   00117E  EFC3  F008         	goto	u1311
  1261   001182  EFC5  F008         	goto	u1310
  1262   001186                     u1311:
  1263   001186  EFDD  F008         	goto	l3312
  1264   00118A                     u1310:
  1265   00118A  5016               	movf	vfpfcnvrt@c^0,w,c
  1266   00118C  A4D8               	btfss	status,2,c
  1267   00118E  EFCB  F008         	goto	u1321
  1268   001192  EFCD  F008         	goto	u1320
  1269   001196                     u1321:
  1270   001196  EF9A  F008         	goto	l3292
  1271   00119A                     u1320:
  1272   00119A  EFDD  F008         	goto	l3312
  1273   00119E                     l3308:
  1274                           
  1275                           ;C:\Program Files\Microchip\xc8\v2.45\pic\sources\c99\common\doprnt.c: 1578:       fputc
      +                          (dbuf[c++], fp);
  1276   00119E  5016               	movf	vfpfcnvrt@c^0,w,c
  1277   0011A0  0F94               	addlw	low _dbuf
  1278   0011A2  6ED9               	movwf	fsr2l,c
  1279   0011A4  6ADA               	clrf	fsr2h,c
  1280   0011A6  50DF               	movf	indf2,w,c
  1281   0011A8  6E0E               	movwf	??_vfpfcnvrt^0,c
  1282   0011AA  500E               	movf	??_vfpfcnvrt^0,w,c
  1283   0011AC  6E03               	movwf	fputc@c^0,c
  1284   0011AE  6A04               	clrf	(fputc@c+1)^0,c
  1285   0011B0  C00B  F005         	movff	vfpfcnvrt@fp,fputc@fp
  1286   0011B4  EC0E  F00A         	call	_fputc	;wreg free
  1287   0011B8  2A16               	incf	vfpfcnvrt@c^0,f,c
  1288   0011BA                     l3312:
  1289                           
  1290                           ;C:\Program Files\Microchip\xc8\v2.45\pic\sources\c99\common\doprnt.c: 1577:      while 
      +                          (c != sizeof(dbuf)) {
  1291   0011BA  0E20               	movlw	32
  1292   0011BC  1816               	xorwf	vfpfcnvrt@c^0,w,c
  1293   0011BE  A4D8               	btfss	status,2,c
  1294   0011C0  EFE4  F008         	goto	u1331
  1295   0011C4  EFE6  F008         	goto	u1330
  1296   0011C8                     u1331:
  1297   0011C8  EFCF  F008         	goto	l3308
  1298   0011CC                     u1330:
  1299   0011CC  EF19  F009         	goto	l1555
  1300   0011D0                     l3316:
  1301   0011D0  0060  F057  FFF6   	movff	vfpfcnvrt@cp,tblptrl
  1302   0011D6                     	if	1	;There is more than 1 active tblptr byte
  1303   0011D6  0E10               	movlw	high __smallconst
  1304   0011D8  6EF7               	movwf	tblptrh,c
  1305   0011DA                     	endif
  1306   0011DA                     	if	1	;Program memory is < 0x10000, tblptru is always zero
  1307   0011DA  6AF8               	clrf	tblptru,c
  1308   0011DC                     	endif
  1309   0011DC                     	if	0	;tblptru may be non-zero
  1310   0011DC                     	endif
  1311   0011DC  0008               	tblrd		*
  1312   0011DE  50F5               	movf	tablat,w,c
  1313   0011E0  6E0E               	movwf	??_vfpfcnvrt^0,c
  1314   0011E2  6A0F               	clrf	(??_vfpfcnvrt+1)^0,c
  1315                           
  1316                           ; Switch on 2 bytes has been partitioned into a top level switch of size 1, and 1 sub-sw
      +                          itches
  1317                           ; Switch size 1, requested type "simple"
  1318                           ; Number of cases is 1, Range of values is 0 to 0
  1319                           ; switch strategies available:
  1320                           ; Name         Instructions Cycles
  1321                           ; simple_byte            4     3 (average)
  1322                           ;	Chosen strategy is simple_byte
  1323   0011E4  500F               	movf	(??_vfpfcnvrt+1)^0,w,c
  1324   0011E6  0A00               	xorlw	0	; case 0
  1325   0011E8  B4D8               	btfsc	status,2,c
  1326   0011EA  EFF9  F008         	goto	l3712
  1327   0011EE  EF00  F009         	goto	l3318
  1328   0011F2                     l3712:
  1329                           
  1330                           ; Switch size 1, requested type "simple"
  1331                           ; Number of cases is 1, Range of values is 88 to 88
  1332                           ; switch strategies available:
  1333                           ; Name         Instructions Cycles
  1334                           ; simple_byte            4     3 (average)
  1335                           ;	Chosen strategy is simple_byte
  1336   0011F2  500E               	movf	??_vfpfcnvrt^0,w,c
  1337   0011F4  0A58               	xorlw	88	; case 88
  1338   0011F6  B4D8               	btfsc	status,2,c
  1339   0011F8  EF98  F008         	goto	l3290
  1340   0011FC  EF00  F009         	goto	l3318
  1341   001200                     l3318:
  1342                           
  1343                           ;C:\Program Files\Microchip\xc8\v2.45\pic\sources\c99\common\doprnt.c: 1806:         ++*
      +                          fmt;
  1344   001200  500C               	movf	vfpfcnvrt@fmt^0,w,c
  1345   001202  6ED9               	movwf	fsr2l,c
  1346   001204  6ADA               	clrf	fsr2h,c
  1347   001206  2ADF               	incf	indf2,f,c
  1348   001208  EF19  F009         	goto	l1555
  1349   00120C                     l3322:
  1350                           
  1351                           ;C:\Program Files\Microchip\xc8\v2.45\pic\sources\c99\common\doprnt.c: 1811:     fputc((
      +                          int)(*fmt)[0], fp);
  1352   00120C  500C               	movf	vfpfcnvrt@fmt^0,w,c
  1353   00120E  6ED9               	movwf	fsr2l,c
  1354   001210  6ADA               	clrf	fsr2h,c
  1355   001212  006F FF7F FFF6     	movff	indf2,tblptrl
  1356   001218                     	if	1	;There is more than 1 active tblptr byte
  1357   001218  0E10               	movlw	high __smallconst
  1358   00121A  6EF7               	movwf	tblptrh,c
  1359   00121C                     	endif
  1360   00121C                     	if	1	;Program memory is < 0x10000, tblptru is always zero
  1361   00121C  6AF8               	clrf	tblptru,c
  1362   00121E                     	endif
  1363   00121E                     	if	0	;tblptru may be non-zero
  1364   00121E                     	endif
  1365   00121E  0008               	tblrd		*
  1366   001220  50F5               	movf	tablat,w,c
  1367   001222  6E03               	movwf	fputc@c^0,c
  1368   001224  6A04               	clrf	(fputc@c+1)^0,c
  1369   001226  C00B  F005         	movff	vfpfcnvrt@fp,fputc@fp
  1370   00122A  EC0E  F00A         	call	_fputc	;wreg free
  1371   00122E  EF00  F009         	goto	l3318
  1372   001232                     l1555:
  1373   001232  0012               	return		;funcret
  1374   001234                     __end_of_vfpfcnvrt:
  1375                           	callstack 0
  1376                           
  1377 ;; *************** function _fputc *****************
  1378 ;; Defined at:
  1379 ;;		line 8 in file "C:\Program Files\Microchip\xc8\v2.45\pic\sources\c99\common\nf_fputc.c"
  1380 ;; Parameters:    Size  Location     Type
  1381 ;;  c               2    2[COMRAM] int 
  1382 ;;  fp              1    4[COMRAM] PTR struct _IO_FILE
  1383 ;;		 -> sprintf@f(12), 
  1384 ;; Auto vars:     Size  Location     Type
  1385 ;;		None
  1386 ;; Return value:  Size  Location     Type
  1387 ;;                  2    2[COMRAM] int 
  1388 ;; Registers used:
  1389 ;;		wreg, fsr1l, fsr1h, fsr2l, fsr2h, status,2, status,0, cstack
  1390 ;; Tracked objects:
  1391 ;;		On entry : 0/0
  1392 ;;		On exit  : 0/0
  1393 ;;		Unchanged: 0/0
  1394 ;; Data sizes:     COMRAM   BANK0   BANK1   BANK2   BANK3   BANK4   BANK5   BANK6   BANK7   BANK8   BANK9  BANK10  BANK1
      +1  BANK12  BANK13  BANK14  BANK15
  1395 ;;      Params:         3       0       0       0       0       0       0       0       0       0       0       0       
      +0       0       0       0       0
  1396 ;;      Locals:         0       0       0       0       0       0       0       0       0       0       0       0       
      +0       0       0       0       0
  1397 ;;      Temps:          5       0       0       0       0       0       0       0       0       0       0       0       
      +0       0       0       0       0
  1398 ;;      Totals:         8       0       0       0       0       0       0       0       0       0       0       0       
      +0       0       0       0       0
  1399 ;;Total ram usage:        8 bytes
  1400 ;; Hardware stack levels used: 1
  1401 ;; Hardware stack levels required when called: 2
  1402 ;; This function calls:
  1403 ;;		_putch
  1404 ;; This function is called by:
  1405 ;;		_vfpfcnvrt
  1406 ;; This function uses a non-reentrant model
  1407 ;;
  1408                           
  1409                           	psect	text4
  1410   00141C                     __ptext4:
  1411                           	callstack 0
  1412   00141C                     _fputc:
  1413                           	callstack 25
  1414   00141C  5005               	movf	fputc@fp^0,w,c
  1415   00141E  B4D8               	btfsc	status,2,c
  1416   001420  EF14  F00A         	goto	u1221
  1417   001424  EF16  F00A         	goto	u1220
  1418   001428                     u1221:
  1419   001428  EF1E  F00A         	goto	l3182
  1420   00142C                     u1220:
  1421   00142C  5005               	movf	fputc@fp^0,w,c
  1422   00142E  A4D8               	btfss	status,2,c
  1423   001430  EF1C  F00A         	goto	u1231
  1424   001434  EF1E  F00A         	goto	u1230
  1425   001438                     u1231:
  1426   001438  EF23  F00A         	goto	l3184
  1427   00143C                     u1230:
  1428   00143C                     l3182:
  1429   00143C  5003               	movf	fputc@c^0,w,c
  1430   00143E  EC31  F010         	call	_putch
  1431   001442  EF63  F00A         	goto	l1574
  1432   001446                     l3184:
  1433   001446  5005               	movf	fputc@fp^0,w,c
  1434   001448  6ED9               	movwf	fsr2l,c
  1435   00144A  6ADA               	clrf	fsr2h,c
  1436   00144C  0E0A               	movlw	10
  1437   00144E  26D9               	addwf	fsr2l,f,c
  1438   001450  50DE               	movf	postinc2,w,c
  1439   001452  10DE               	iorwf	postinc2,w,c
  1440   001454  B4D8               	btfsc	status,2,c
  1441   001456  EF2F  F00A         	goto	u1241
  1442   00145A  EF31  F00A         	goto	u1240
  1443   00145E                     u1241:
  1444   00145E  EF4A  F00A         	goto	l3188
  1445   001462                     u1240:
  1446   001462  5005               	movf	fputc@fp^0,w,c
  1447   001464  6ED9               	movwf	fsr2l,c
  1448   001466  6ADA               	clrf	fsr2h,c
  1449   001468  0E0A               	movlw	10
  1450   00146A  26D9               	addwf	fsr2l,f,c
  1451   00146C  5005               	movf	fputc@fp^0,w,c
  1452   00146E  6EE1               	movwf	fsr1l,c
  1453   001470  6AE2               	clrf	fsr1h,c
  1454   001472  0E03               	movlw	3
  1455   001474  26E1               	addwf	fsr1l,f,c
  1456   001476  50DE               	movf	postinc2,w,c
  1457   001478  5CE6               	subwf	postinc1,w,c
  1458   00147A  50E6               	movf	postinc1,w,c
  1459   00147C  0A80               	xorlw	128
  1460   00147E  6E0A               	movwf	(??_fputc+4)^0,c
  1461   001480  50DE               	movf	postinc2,w,c
  1462   001482  0A80               	xorlw	128
  1463   001484  580A               	subwfb	(??_fputc+4)^0,w,c
  1464   001486  B0D8               	btfsc	status,0,c
  1465   001488  EF48  F00A         	goto	u1251
  1466   00148C  EF4A  F00A         	goto	u1250
  1467   001490                     u1251:
  1468   001490  EF63  F00A         	goto	l1574
  1469   001494                     u1250:
  1470   001494                     l3188:
  1471   001494  5005               	movf	fputc@fp^0,w,c
  1472   001496  6ED9               	movwf	fsr2l,c
  1473   001498  6ADA               	clrf	fsr2h,c
  1474   00149A  0E03               	movlw	3
  1475   00149C  26D9               	addwf	fsr2l,f,c
  1476   00149E  50DF               	movf	indf2,w,c
  1477   0014A0  6E06               	movwf	??_fputc^0,c
  1478   0014A2  5005               	movf	fputc@fp^0,w,c
  1479   0014A4  6ED9               	movwf	fsr2l,c
  1480   0014A6  6ADA               	clrf	fsr2h,c
  1481   0014A8  50DF               	movf	indf2,w,c
  1482   0014AA  2406               	addwf	??_fputc^0,w,c
  1483   0014AC  6ED9               	movwf	fsr2l,c
  1484   0014AE  6ADA               	clrf	fsr2h,c
  1485   0014B0  0060  F00F  FFDF   	movff	fputc@c,indf2
  1486   0014B6  5005               	movf	fputc@fp^0,w,c
  1487   0014B8  6ED9               	movwf	fsr2l,c
  1488   0014BA  6ADA               	clrf	fsr2h,c
  1489   0014BC  0E03               	movlw	3
  1490   0014BE  26D9               	addwf	fsr2l,f,c
  1491   0014C0  2ADE               	incf	postinc2,f,c
  1492   0014C2  0E00               	movlw	0
  1493   0014C4  22DD               	addwfc	postdec2,f,c
  1494   0014C6                     l1574:
  1495   0014C6  0012               	return		;funcret
  1496   0014C8                     __end_of_fputc:
  1497                           	callstack 0
  1498                           
  1499 ;; *************** function _putch *****************
  1500 ;; Defined at:
  1501 ;;		line 184 in file "mcc_generated_files/uart1.c"
  1502 ;; Parameters:    Size  Location     Type
  1503 ;;  txData          1    wreg     unsigned char 
  1504 ;; Auto vars:     Size  Location     Type
  1505 ;;  txData          1    1[COMRAM] unsigned char 
  1506 ;; Return value:  Size  Location     Type
  1507 ;;                  1    wreg      void 
  1508 ;; Registers used:
  1509 ;;		wreg, status,2, cstack
  1510 ;; Tracked objects:
  1511 ;;		On entry : 0/0
  1512 ;;		On exit  : 0/0
  1513 ;;		Unchanged: 0/0
  1514 ;; Data sizes:     COMRAM   BANK0   BANK1   BANK2   BANK3   BANK4   BANK5   BANK6   BANK7   BANK8   BANK9  BANK10  BANK1
      +1  BANK12  BANK13  BANK14  BANK15
  1515 ;;      Params:         0       0       0       0       0       0       0       0       0       0       0       0       
      +0       0       0       0       0
  1516 ;;      Locals:         1       0       0       0       0       0       0       0       0       0       0       0       
      +0       0       0       0       0
  1517 ;;      Temps:          0       0       0       0       0       0       0       0       0       0       0       0       
      +0       0       0       0       0
  1518 ;;      Totals:         1       0       0       0       0       0       0       0       0       0       0       0       
      +0       0       0       0       0
  1519 ;;Total ram usage:        1 bytes
  1520 ;; Hardware stack levels used: 1
  1521 ;; Hardware stack levels required when called: 1
  1522 ;; This function calls:
  1523 ;;		_UART1_Write
  1524 ;; This function is called by:
  1525 ;;		_fputc
  1526 ;; This function uses a non-reentrant model
  1527 ;;
  1528                           
  1529                           	psect	text5
  1530   002062                     __ptext5:
  1531                           	callstack 0
  1532   002062                     _putch:
  1533                           	callstack 25
  1534                           
  1535                           ;incstack = 0
  1536                           ;putch@txData stored from wreg
  1537   002062  6E02               	movwf	putch@txData^0,c
  1538   002064                     
  1539                           ;mcc_generated_files/uart1.c: 184: void putch(char txData);mcc_generated_files/uart1.c: 
      +                          185: {;mcc_generated_files/uart1.c: 186:     UART1_Write(txData);
  1540   002064  5002               	movf	putch@txData^0,w,c
  1541   002066  EC88  F00F         	call	_UART1_Write
  1542   00206A  0012               	return		;funcret
  1543   00206C                     __end_of_putch:
  1544                           	callstack 0
  1545                           
  1546 ;; *************** function _UART_SendString *****************
  1547 ;; Defined at:
  1548 ;;		line 68 in file "main.c"
  1549 ;; Parameters:    Size  Location     Type
  1550 ;;  str             2    1[COMRAM] PTR const unsigned char 
  1551 ;;		 -> STR_5(23), main@buffer(50), STR_3(25), STR_2(29), 
  1552 ;;		 -> STR_1(25), 
  1553 ;; Auto vars:     Size  Location     Type
  1554 ;;		None
  1555 ;; Return value:  Size  Location     Type
  1556 ;;                  1    wreg      void 
  1557 ;; Registers used:
  1558 ;;		wreg, fsr0l, fsr0h, status,2, status,0, tblptrl, tblptrh, tblptru, cstack
  1559 ;; Tracked objects:
  1560 ;;		On entry : 0/0
  1561 ;;		On exit  : 0/0
  1562 ;;		Unchanged: 0/0
  1563 ;; Data sizes:     COMRAM   BANK0   BANK1   BANK2   BANK3   BANK4   BANK5   BANK6   BANK7   BANK8   BANK9  BANK10  BANK1
      +1  BANK12  BANK13  BANK14  BANK15
  1564 ;;      Params:         2       0       0       0       0       0       0       0       0       0       0       0       
      +0       0       0       0       0
  1565 ;;      Locals:         0       0       0       0       0       0       0       0       0       0       0       0       
      +0       0       0       0       0
  1566 ;;      Temps:          0       0       0       0       0       0       0       0       0       0       0       0       
      +0       0       0       0       0
  1567 ;;      Totals:         2       0       0       0       0       0       0       0       0       0       0       0       
      +0       0       0       0       0
  1568 ;;Total ram usage:        2 bytes
  1569 ;; Hardware stack levels used: 1
  1570 ;; Hardware stack levels required when called: 1
  1571 ;; This function calls:
  1572 ;;		_UART1_Write
  1573 ;; This function is called by:
  1574 ;;		_main
  1575 ;; This function uses a non-reentrant model
  1576 ;;
  1577                           
  1578                           	psect	text6
  1579   0017AC                     __ptext6:
  1580                           	callstack 0
  1581   0017AC                     _UART_SendString:
  1582                           	callstack 29
  1583   0017AC                     
  1584                           ;main.c: 69:     while (*str) {
  1585   0017AC  EFF1  F00B         	goto	l3446
  1586   0017B0                     l3442:
  1587                           
  1588                           ;main.c: 70:         UART1_Write(*str);
  1589   0017B0  0060  F00B  FFF6   	movff	UART_SendString@str,tblptrl
  1590   0017B6  0060  F00F  FFF7   	movff	UART_SendString@str+1,tblptrh
  1591   0017BC  0E00               	movlw	low (__smallconst shr (0+16))
  1592   0017BE  6EF8               	movwf	tblptru,c
  1593   0017C0  0E0F               	movlw	(high __ramtop+-1)
  1594   0017C2  64F7               	cpfsgt	tblptrh,c
  1595   0017C4  D003               	bra	u1437
  1596   0017C6  0008               	tblrd		*
  1597   0017C8  50F5               	movf	tablat,w,c
  1598   0017CA  D007               	bra	u1430
  1599   0017CC                     u1437:
  1600   0017CC  006F FFDB FFE9     	movff	tblptrl,fsr0l
  1601   0017D2  006F FFDF FFEA     	movff	tblptrh,fsr0h
  1602   0017D8  50EF               	movf	indf0,w,c
  1603   0017DA                     u1430:
  1604   0017DA  EC88  F00F         	call	_UART1_Write
  1605   0017DE                     
  1606                           ;main.c: 71:         str++;
  1607   0017DE  4A02               	infsnz	UART_SendString@str^0,f,c
  1608   0017E0  2A03               	incf	(UART_SendString@str+1)^0,f,c
  1609   0017E2                     l3446:
  1610                           
  1611                           ;main.c: 69:     while (*str) {
  1612   0017E2  0060  F00B  FFF6   	movff	UART_SendString@str,tblptrl
  1613   0017E8  0060  F00F  FFF7   	movff	UART_SendString@str+1,tblptrh
  1614   0017EE  0E00               	movlw	low (__smallconst shr (0+16))
  1615   0017F0  6EF8               	movwf	tblptru,c
  1616   0017F2  0E0F               	movlw	(high __ramtop+-1)
  1617   0017F4  64F7               	cpfsgt	tblptrh,c
  1618   0017F6  D003               	bra	u1447
  1619   0017F8  0008               	tblrd		*
  1620   0017FA  50F5               	movf	tablat,w,c
  1621   0017FC  D007               	bra	u1440
  1622   0017FE                     u1447:
  1623   0017FE  006F FFDB FFE9     	movff	tblptrl,fsr0l
  1624   001804  006F FFDF FFEA     	movff	tblptrh,fsr0h
  1625   00180A  50EF               	movf	indf0,w,c
  1626   00180C                     u1440:
  1627   00180C  0900               	iorlw	0
  1628   00180E  A4D8               	btfss	status,2,c
  1629   001810  EF0C  F00C         	goto	u1451
  1630   001814  EF0E  F00C         	goto	u1450
  1631   001818                     u1451:
  1632   001818  EFD8  F00B         	goto	l3442
  1633   00181C                     u1450:
  1634   00181C  0012               	return		;funcret
  1635   00181E                     __end_of_UART_SendString:
  1636                           	callstack 0
  1637                           
  1638 ;; *************** function _UART1_Write *****************
  1639 ;; Defined at:
  1640 ;;		line 170 in file "mcc_generated_files/uart1.c"
  1641 ;; Parameters:    Size  Location     Type
  1642 ;;  txData          1    wreg     unsigned char 
  1643 ;; Auto vars:     Size  Location     Type
  1644 ;;  txData          1    0[COMRAM] unsigned char 
  1645 ;; Return value:  Size  Location     Type
  1646 ;;                  1    wreg      void 
  1647 ;; Registers used:
  1648 ;;		wreg
  1649 ;; Tracked objects:
  1650 ;;		On entry : 0/0
  1651 ;;		On exit  : 0/0
  1652 ;;		Unchanged: 0/0
  1653 ;; Data sizes:     COMRAM   BANK0   BANK1   BANK2   BANK3   BANK4   BANK5   BANK6   BANK7   BANK8   BANK9  BANK10  BANK1
      +1  BANK12  BANK13  BANK14  BANK15
  1654 ;;      Params:         0       0       0       0       0       0       0       0       0       0       0       0       
      +0       0       0       0       0
  1655 ;;      Locals:         1       0       0       0       0       0       0       0       0       0       0       0       
      +0       0       0       0       0
  1656 ;;      Temps:          0       0       0       0       0       0       0       0       0       0       0       0       
      +0       0       0       0       0
  1657 ;;      Totals:         1       0       0       0       0       0       0       0       0       0       0       0       
      +0       0       0       0       0
  1658 ;;Total ram usage:        1 bytes
  1659 ;; Hardware stack levels used: 1
  1660 ;; This function calls:
  1661 ;;		Nothing
  1662 ;; This function is called by:
  1663 ;;		_putch
  1664 ;;		_UART_SendString
  1665 ;; This function uses a non-reentrant model
  1666 ;;
  1667                           
  1668                           	psect	text7
  1669   001F10                     __ptext7:
  1670                           	callstack 0
  1671   001F10                     _UART1_Write:
  1672                           	callstack 25
  1673                           
  1674                           ;incstack = 0
  1675                           ;UART1_Write@txData stored from wreg
  1676   001F10  6E01               	movwf	UART1_Write@txData^0,c
  1677   001F12                     l191:
  1678                           
  1679                           ;mcc_generated_files/uart1.c: 172:     while(0 == PIR3bits.U1TXIF)
  1680   001F12  0139               	movlb	57	; () banked
  1681   001F14  A9A3               	btfss	163,4,b	;volatile
  1682   001F16  EF8F  F00F         	goto	u1091
  1683   001F1A  EF91  F00F         	goto	u1090
  1684   001F1E                     u1091:
  1685   001F1E  EF89  F00F         	goto	l191
  1686   001F22                     u1090:
  1687   001F22                     
  1688                           ; BSR set to: 57
  1689                           ;mcc_generated_files/uart1.c: 176:     U1TXB = txData;
  1690   001F22  0060  F007  FDEA   	movff	UART1_Write@txData,15850	;volatile
  1691   001F28                     
  1692                           ; BSR set to: 57
  1693   001F28  0012               	return		;funcret
  1694   001F2A                     __end_of_UART1_Write:
  1695                           	callstack 0
  1696                           
  1697 ;; *************** function _SYSTEM_Initialize *****************
  1698 ;; Defined at:
  1699 ;;		line 50 in file "mcc_generated_files/mcc.c"
  1700 ;; Parameters:    Size  Location     Type
  1701 ;;		None
  1702 ;; Auto vars:     Size  Location     Type
  1703 ;;		None
  1704 ;; Return value:  Size  Location     Type
  1705 ;;                  1    wreg      void 
  1706 ;; Registers used:
  1707 ;;		wreg, status,2, status,0, cstack
  1708 ;; Tracked objects:
  1709 ;;		On entry : 0/0
  1710 ;;		On exit  : 0/0
  1711 ;;		Unchanged: 0/0
  1712 ;; Data sizes:     COMRAM   BANK0   BANK1   BANK2   BANK3   BANK4   BANK5   BANK6   BANK7   BANK8   BANK9  BANK10  BANK1
      +1  BANK12  BANK13  BANK14  BANK15
  1713 ;;      Params:         0       0       0       0       0       0       0       0       0       0       0       0       
      +0       0       0       0       0
  1714 ;;      Locals:         0       0       0       0       0       0       0       0       0       0       0       0       
      +0       0       0       0       0
  1715 ;;      Temps:          0       0       0       0       0       0       0       0       0       0       0       0       
      +0       0       0       0       0
  1716 ;;      Totals:         0       0       0       0       0       0       0       0       0       0       0       0       
      +0       0       0       0       0
  1717 ;;Total ram usage:        0 bytes
  1718 ;; Hardware stack levels used: 1
  1719 ;; Hardware stack levels required when called: 2
  1720 ;; This function calls:
  1721 ;;		_I2C1_Initialize
  1722 ;;		_OSCILLATOR_Initialize
  1723 ;;		_PIN_MANAGER_Initialize
  1724 ;;		_PMD_Initialize
  1725 ;;		_UART1_Initialize
  1726 ;; This function is called by:
  1727 ;;		_main
  1728 ;; This function uses a non-reentrant model
  1729 ;;
  1730                           
  1731                           	psect	text8
  1732   001F72                     __ptext8:
  1733                           	callstack 0
  1734   001F72                     _SYSTEM_Initialize:
  1735                           	callstack 28
  1736   001F72                     
  1737                           ;mcc_generated_files/mcc.c: 52:     PMD_Initialize();
  1738   001F72  EC28  F00F         	call	_PMD_Initialize	;wreg free
  1739                           
  1740                           ;mcc_generated_files/mcc.c: 53:     I2C1_Initialize();
  1741   001F76  EC3A  F00F         	call	_I2C1_Initialize	;wreg free
  1742                           
  1743                           ;mcc_generated_files/mcc.c: 54:     PIN_MANAGER_Initialize();
  1744   001F7A  EC64  F00A         	call	_PIN_MANAGER_Initialize	;wreg free
  1745                           
  1746                           ;mcc_generated_files/mcc.c: 55:     OSCILLATOR_Initialize();
  1747   001F7E  EC95  F00F         	call	_OSCILLATOR_Initialize	;wreg free
  1748   001F82                     
  1749                           ;mcc_generated_files/mcc.c: 56:     UART1_Initialize();
  1750   001F82  ECB6  F00C         	call	_UART1_Initialize	;wreg free
  1751   001F86  0012               	return		;funcret
  1752   001F88                     __end_of_SYSTEM_Initialize:
  1753                           	callstack 0
  1754                           
  1755 ;; *************** function _UART1_Initialize *****************
  1756 ;; Defined at:
  1757 ;;		line 66 in file "mcc_generated_files/uart1.c"
  1758 ;; Parameters:    Size  Location     Type
  1759 ;;		None
  1760 ;; Auto vars:     Size  Location     Type
  1761 ;;		None
  1762 ;; Return value:  Size  Location     Type
  1763 ;;                  1    wreg      void 
  1764 ;; Registers used:
  1765 ;;		wreg, status,2, status,0, cstack
  1766 ;; Tracked objects:
  1767 ;;		On entry : 0/0
  1768 ;;		On exit  : 0/0
  1769 ;;		Unchanged: 0/0
  1770 ;; Data sizes:     COMRAM   BANK0   BANK1   BANK2   BANK3   BANK4   BANK5   BANK6   BANK7   BANK8   BANK9  BANK10  BANK1
      +1  BANK12  BANK13  BANK14  BANK15
  1771 ;;      Params:         0       0       0       0       0       0       0       0       0       0       0       0       
      +0       0       0       0       0
  1772 ;;      Locals:         0       0       0       0       0       0       0       0       0       0       0       0       
      +0       0       0       0       0
  1773 ;;      Temps:          0       0       0       0       0       0       0       0       0       0       0       0       
      +0       0       0       0       0
  1774 ;;      Totals:         0       0       0       0       0       0       0       0       0       0       0       0       
      +0       0       0       0       0
  1775 ;;Total ram usage:        0 bytes
  1776 ;; Hardware stack levels used: 1
  1777 ;; Hardware stack levels required when called: 1
  1778 ;; This function calls:
  1779 ;;		_UART1_SetErrorHandler
  1780 ;;		_UART1_SetFramingErrorHandler
  1781 ;;		_UART1_SetOverrunErrorHandler
  1782 ;; This function is called by:
  1783 ;;		_SYSTEM_Initialize
  1784 ;; This function uses a non-reentrant model
  1785 ;;
  1786                           
  1787                           	psect	text9
  1788   00196C                     __ptext9:
  1789                           	callstack 0
  1790   00196C                     _UART1_Initialize:
  1791                           	callstack 28
  1792   00196C                     
  1793                           ;mcc_generated_files/uart1.c: 73:     U1P1L = 0x00;
  1794   00196C  0E00               	movlw	0
  1795   00196E  013D               	movlb	61	; () banked
  1796   001970  6FEC               	movwf	236,b	;volatile
  1797                           
  1798                           ;mcc_generated_files/uart1.c: 76:     U1P1H = 0x00;
  1799   001972  0E00               	movlw	0
  1800   001974  6FED               	movwf	237,b	;volatile
  1801                           
  1802                           ;mcc_generated_files/uart1.c: 79:     U1P2L = 0x00;
  1803   001976  0E00               	movlw	0
  1804   001978  6FEE               	movwf	238,b	;volatile
  1805                           
  1806                           ;mcc_generated_files/uart1.c: 82:     U1P2H = 0x00;
  1807   00197A  0E00               	movlw	0
  1808   00197C  6FEF               	movwf	239,b	;volatile
  1809                           
  1810                           ;mcc_generated_files/uart1.c: 85:     U1P3L = 0x00;
  1811   00197E  0E00               	movlw	0
  1812   001980  6FF0               	movwf	240,b	;volatile
  1813                           
  1814                           ;mcc_generated_files/uart1.c: 88:     U1P3H = 0x00;
  1815   001982  0E00               	movlw	0
  1816   001984  6FF1               	movwf	241,b	;volatile
  1817                           
  1818                           ;mcc_generated_files/uart1.c: 91:     U1CON0 = 0xB0;
  1819   001986  0EB0               	movlw	176
  1820   001988  6FF2               	movwf	242,b	;volatile
  1821                           
  1822                           ;mcc_generated_files/uart1.c: 94:     U1CON1 = 0x80;
  1823   00198A  0E80               	movlw	128
  1824   00198C  6FF3               	movwf	243,b	;volatile
  1825                           
  1826                           ;mcc_generated_files/uart1.c: 97:     U1CON2 = 0x00;
  1827   00198E  0E00               	movlw	0
  1828   001990  6FF4               	movwf	244,b	;volatile
  1829                           
  1830                           ;mcc_generated_files/uart1.c: 100:     U1BRGL = 0xCF;
  1831   001992  0ECF               	movlw	207
  1832   001994  6FF5               	movwf	245,b	;volatile
  1833                           
  1834                           ;mcc_generated_files/uart1.c: 103:     U1BRGH = 0x00;
  1835   001996  0E00               	movlw	0
  1836   001998  6FF6               	movwf	246,b	;volatile
  1837                           
  1838                           ;mcc_generated_files/uart1.c: 106:     U1FIFO = 0x00;
  1839   00199A  0E00               	movlw	0
  1840   00199C  6FF7               	movwf	247,b	;volatile
  1841                           
  1842                           ;mcc_generated_files/uart1.c: 109:     U1UIR = 0x00;
  1843   00199E  0E00               	movlw	0
  1844   0019A0  6FF8               	movwf	248,b	;volatile
  1845                           
  1846                           ;mcc_generated_files/uart1.c: 112:     U1ERRIR = 0x00;
  1847   0019A2  0E00               	movlw	0
  1848   0019A4  6FF9               	movwf	249,b	;volatile
  1849                           
  1850                           ;mcc_generated_files/uart1.c: 115:     U1ERRIE = 0x00;
  1851   0019A6  0E00               	movlw	0
  1852   0019A8  6FFA               	movwf	250,b	;volatile
  1853   0019AA                     
  1854                           ; BSR set to: 61
  1855                           ;mcc_generated_files/uart1.c: 118:     UART1_SetFramingErrorHandler(UART1_DefaultFraming
      +                          ErrorHandler);
  1856   0019AA  0E00               	movlw	0
  1857   0019AC  6E01               	movwf	UART1_SetFramingErrorHandler@interruptHandler^0,c
  1858   0019AE  0E00               	movlw	0
  1859   0019B0  6E02               	movwf	(UART1_SetFramingErrorHandler@interruptHandler+1)^0,c
  1860   0019B2  EC3B  F010         	call	_UART1_SetFramingErrorHandler	;wreg free
  1861   0019B6                     
  1862                           ;mcc_generated_files/uart1.c: 119:     UART1_SetOverrunErrorHandler(UART1_DefaultOverrun
      +                          ErrorHandler);
  1863   0019B6  0E00               	movlw	0
  1864   0019B8  6E01               	movwf	UART1_SetOverrunErrorHandler@interruptHandler^0,c
  1865   0019BA  0E00               	movlw	0
  1866   0019BC  6E02               	movwf	(UART1_SetOverrunErrorHandler@interruptHandler+1)^0,c
  1867   0019BE  EC36  F010         	call	_UART1_SetOverrunErrorHandler	;wreg free
  1868   0019C2                     
  1869                           ;mcc_generated_files/uart1.c: 120:     UART1_SetErrorHandler(UART1_DefaultErrorHandler);
  1870   0019C2  0E00               	movlw	0
  1871   0019C4  6E01               	movwf	UART1_SetErrorHandler@interruptHandler^0,c
  1872   0019C6  0E00               	movlw	0
  1873   0019C8  6E02               	movwf	(UART1_SetErrorHandler@interruptHandler+1)^0,c
  1874   0019CA  EC40  F010         	call	_UART1_SetErrorHandler	;wreg free
  1875   0019CE                     
  1876                           ;mcc_generated_files/uart1.c: 122:     uart1RxLastError.status = 0;
  1877   0019CE  0E00               	movlw	0
  1878   0019D0  6E57               	movwf	_uart1RxLastError^0,c	;volatile
  1879   0019D2  0012               	return		;funcret
  1880   0019D4                     __end_of_UART1_Initialize:
  1881                           	callstack 0
  1882                           
  1883 ;; *************** function _UART1_SetOverrunErrorHandler *****************
  1884 ;; Defined at:
  1885 ;;		line 204 in file "mcc_generated_files/uart1.c"
  1886 ;; Parameters:    Size  Location     Type
  1887 ;;  interruptHan    2    0[COMRAM] PTR FTN()void 
  1888 ;;		 -> UART1_DefaultOverrunErrorHandler(1), 
  1889 ;; Auto vars:     Size  Location     Type
  1890 ;;		None
  1891 ;; Return value:  Size  Location     Type
  1892 ;;                  1    wreg      void 
  1893 ;; Registers used:
  1894 ;;		wreg, status,2, status,0
  1895 ;; Tracked objects:
  1896 ;;		On entry : 0/0
  1897 ;;		On exit  : 0/0
  1898 ;;		Unchanged: 0/0
  1899 ;; Data sizes:     COMRAM   BANK0   BANK1   BANK2   BANK3   BANK4   BANK5   BANK6   BANK7   BANK8   BANK9  BANK10  BANK1
      +1  BANK12  BANK13  BANK14  BANK15
  1900 ;;      Params:         2       0       0       0       0       0       0       0       0       0       0       0       
      +0       0       0       0       0
  1901 ;;      Locals:         0       0       0       0       0       0       0       0       0       0       0       0       
      +0       0       0       0       0
  1902 ;;      Temps:          0       0       0       0       0       0       0       0       0       0       0       0       
      +0       0       0       0       0
  1903 ;;      Totals:         2       0       0       0       0       0       0       0       0       0       0       0       
      +0       0       0       0       0
  1904 ;;Total ram usage:        2 bytes
  1905 ;; Hardware stack levels used: 1
  1906 ;; This function calls:
  1907 ;;		Nothing
  1908 ;; This function is called by:
  1909 ;;		_UART1_Initialize
  1910 ;; This function uses a non-reentrant model
  1911 ;;
  1912                           
  1913                           	psect	text10
  1914   00206C                     __ptext10:
  1915                           	callstack 0
  1916   00206C                     _UART1_SetOverrunErrorHandler:
  1917                           	callstack 28
  1918   00206C                     
  1919                           ;mcc_generated_files/uart1.c: 205:     UART1_OverrunErrorHandler = interruptHandler;
  1920   00206C  C001  F05A         	movff	UART1_SetOverrunErrorHandler@interruptHandler,_UART1_OverrunErrorHandler
  1921   002070  C002  F05B         	movff	UART1_SetOverrunErrorHandler@interruptHandler+1,_UART1_OverrunErrorHandler+1
  1922   002074  0012               	return		;funcret
  1923   002076                     __end_of_UART1_SetOverrunErrorHandler:
  1924                           	callstack 0
  1925                           
  1926 ;; *************** function _UART1_SetFramingErrorHandler *****************
  1927 ;; Defined at:
  1928 ;;		line 200 in file "mcc_generated_files/uart1.c"
  1929 ;; Parameters:    Size  Location     Type
  1930 ;;  interruptHan    2    0[COMRAM] PTR FTN()void 
  1931 ;;		 -> UART1_DefaultFramingErrorHandler(1), 
  1932 ;; Auto vars:     Size  Location     Type
  1933 ;;		None
  1934 ;; Return value:  Size  Location     Type
  1935 ;;                  1    wreg      void 
  1936 ;; Registers used:
  1937 ;;		wreg, status,2, status,0
  1938 ;; Tracked objects:
  1939 ;;		On entry : 0/0
  1940 ;;		On exit  : 0/0
  1941 ;;		Unchanged: 0/0
  1942 ;; Data sizes:     COMRAM   BANK0   BANK1   BANK2   BANK3   BANK4   BANK5   BANK6   BANK7   BANK8   BANK9  BANK10  BANK1
      +1  BANK12  BANK13  BANK14  BANK15
  1943 ;;      Params:         2       0       0       0       0       0       0       0       0       0       0       0       
      +0       0       0       0       0
  1944 ;;      Locals:         0       0       0       0       0       0       0       0       0       0       0       0       
      +0       0       0       0       0
  1945 ;;      Temps:          0       0       0       0       0       0       0       0       0       0       0       0       
      +0       0       0       0       0
  1946 ;;      Totals:         2       0       0       0       0       0       0       0       0       0       0       0       
      +0       0       0       0       0
  1947 ;;Total ram usage:        2 bytes
  1948 ;; Hardware stack levels used: 1
  1949 ;; This function calls:
  1950 ;;		Nothing
  1951 ;; This function is called by:
  1952 ;;		_UART1_Initialize
  1953 ;; This function uses a non-reentrant model
  1954 ;;
  1955                           
  1956                           	psect	text11
  1957   002076                     __ptext11:
  1958                           	callstack 0
  1959   002076                     _UART1_SetFramingErrorHandler:
  1960                           	callstack 28
  1961   002076                     
  1962                           ;mcc_generated_files/uart1.c: 201:     UART1_FramingErrorHandler = interruptHandler;
  1963   002076  C001  F05C         	movff	UART1_SetFramingErrorHandler@interruptHandler,_UART1_FramingErrorHandler
  1964   00207A  C002  F05D         	movff	UART1_SetFramingErrorHandler@interruptHandler+1,_UART1_FramingErrorHandler+1
  1965   00207E  0012               	return		;funcret
  1966   002080                     __end_of_UART1_SetFramingErrorHandler:
  1967                           	callstack 0
  1968                           
  1969 ;; *************** function _UART1_SetErrorHandler *****************
  1970 ;; Defined at:
  1971 ;;		line 208 in file "mcc_generated_files/uart1.c"
  1972 ;; Parameters:    Size  Location     Type
  1973 ;;  interruptHan    2    0[COMRAM] PTR FTN()void 
  1974 ;;		 -> UART1_DefaultErrorHandler(1), 
  1975 ;; Auto vars:     Size  Location     Type
  1976 ;;		None
  1977 ;; Return value:  Size  Location     Type
  1978 ;;                  1    wreg      void 
  1979 ;; Registers used:
  1980 ;;		wreg, status,2, status,0
  1981 ;; Tracked objects:
  1982 ;;		On entry : 0/0
  1983 ;;		On exit  : 0/0
  1984 ;;		Unchanged: 0/0
  1985 ;; Data sizes:     COMRAM   BANK0   BANK1   BANK2   BANK3   BANK4   BANK5   BANK6   BANK7   BANK8   BANK9  BANK10  BANK1
      +1  BANK12  BANK13  BANK14  BANK15
  1986 ;;      Params:         2       0       0       0       0       0       0       0       0       0       0       0       
      +0       0       0       0       0
  1987 ;;      Locals:         0       0       0       0       0       0       0       0       0       0       0       0       
      +0       0       0       0       0
  1988 ;;      Temps:          0       0       0       0       0       0       0       0       0       0       0       0       
      +0       0       0       0       0
  1989 ;;      Totals:         2       0       0       0       0       0       0       0       0       0       0       0       
      +0       0       0       0       0
  1990 ;;Total ram usage:        2 bytes
  1991 ;; Hardware stack levels used: 1
  1992 ;; This function calls:
  1993 ;;		Nothing
  1994 ;; This function is called by:
  1995 ;;		_UART1_Initialize
  1996 ;; This function uses a non-reentrant model
  1997 ;;
  1998                           
  1999                           	psect	text12
  2000   002080                     __ptext12:
  2001                           	callstack 0
  2002   002080                     _UART1_SetErrorHandler:
  2003                           	callstack 28
  2004   002080                     
  2005                           ;mcc_generated_files/uart1.c: 209:     UART1_ErrorHandler = interruptHandler;
  2006   002080  C001  F058         	movff	UART1_SetErrorHandler@interruptHandler,_UART1_ErrorHandler
  2007   002084  C002  F059         	movff	UART1_SetErrorHandler@interruptHandler+1,_UART1_ErrorHandler+1
  2008   002088  0012               	return		;funcret
  2009   00208A                     __end_of_UART1_SetErrorHandler:
  2010                           	callstack 0
  2011                           
  2012 ;; *************** function _PMD_Initialize *****************
  2013 ;; Defined at:
  2014 ;;		line 73 in file "mcc_generated_files/mcc.c"
  2015 ;; Parameters:    Size  Location     Type
  2016 ;;		None
  2017 ;; Auto vars:     Size  Location     Type
  2018 ;;		None
  2019 ;; Return value:  Size  Location     Type
  2020 ;;                  1    wreg      void 
  2021 ;; Registers used:
  2022 ;;		wreg, status,2
  2023 ;; Tracked objects:
  2024 ;;		On entry : 0/0
  2025 ;;		On exit  : 0/0
  2026 ;;		Unchanged: 0/0
  2027 ;; Data sizes:     COMRAM   BANK0   BANK1   BANK2   BANK3   BANK4   BANK5   BANK6   BANK7   BANK8   BANK9  BANK10  BANK1
      +1  BANK12  BANK13  BANK14  BANK15
  2028 ;;      Params:         0       0       0       0       0       0       0       0       0       0       0       0       
      +0       0       0       0       0
  2029 ;;      Locals:         0       0       0       0       0       0       0       0       0       0       0       0       
      +0       0       0       0       0
  2030 ;;      Temps:          0       0       0       0       0       0       0       0       0       0       0       0       
      +0       0       0       0       0
  2031 ;;      Totals:         0       0       0       0       0       0       0       0       0       0       0       0       
      +0       0       0       0       0
  2032 ;;Total ram usage:        0 bytes
  2033 ;; Hardware stack levels used: 1
  2034 ;; This function calls:
  2035 ;;		Nothing
  2036 ;; This function is called by:
  2037 ;;		_SYSTEM_Initialize
  2038 ;; This function uses a non-reentrant model
  2039 ;;
  2040                           
  2041                           	psect	text13
  2042   001E50                     __ptext13:
  2043                           	callstack 0
  2044   001E50                     _PMD_Initialize:
  2045                           	callstack 29
  2046   001E50                     
  2047                           ;mcc_generated_files/mcc.c: 76:     PMD0 = 0x00;
  2048   001E50  0E00               	movlw	0
  2049   001E52  0139               	movlb	57	; () banked
  2050   001E54  6FC0               	movwf	192,b	;volatile
  2051                           
  2052                           ;mcc_generated_files/mcc.c: 78:     PMD1 = 0x00;
  2053   001E56  0E00               	movlw	0
  2054   001E58  6FC1               	movwf	193,b	;volatile
  2055                           
  2056                           ;mcc_generated_files/mcc.c: 80:     PMD2 = 0x00;
  2057   001E5A  0E00               	movlw	0
  2058   001E5C  6FC2               	movwf	194,b	;volatile
  2059                           
  2060                           ;mcc_generated_files/mcc.c: 82:     PMD3 = 0x00;
  2061   001E5E  0E00               	movlw	0
  2062   001E60  6FC3               	movwf	195,b	;volatile
  2063                           
  2064                           ;mcc_generated_files/mcc.c: 84:     PMD4 = 0x00;
  2065   001E62  0E00               	movlw	0
  2066   001E64  6FC4               	movwf	196,b	;volatile
  2067                           
  2068                           ;mcc_generated_files/mcc.c: 86:     PMD5 = 0x00;
  2069   001E66  0E00               	movlw	0
  2070   001E68  6FC5               	movwf	197,b	;volatile
  2071                           
  2072                           ;mcc_generated_files/mcc.c: 88:     PMD6 = 0x00;
  2073   001E6A  0E00               	movlw	0
  2074   001E6C  6FC6               	movwf	198,b	;volatile
  2075                           
  2076                           ;mcc_generated_files/mcc.c: 90:     PMD7 = 0x00;
  2077   001E6E  0E00               	movlw	0
  2078   001E70  6FC7               	movwf	199,b	;volatile
  2079   001E72                     
  2080                           ; BSR set to: 57
  2081   001E72  0012               	return		;funcret
  2082   001E74                     __end_of_PMD_Initialize:
  2083                           	callstack 0
  2084                           
  2085 ;; *************** function _PIN_MANAGER_Initialize *****************
  2086 ;; Defined at:
  2087 ;;		line 55 in file "mcc_generated_files/pin_manager.c"
  2088 ;; Parameters:    Size  Location     Type
  2089 ;;		None
  2090 ;; Auto vars:     Size  Location     Type
  2091 ;;		None
  2092 ;; Return value:  Size  Location     Type
  2093 ;;                  1    wreg      void 
  2094 ;; Registers used:
  2095 ;;		wreg, status,2
  2096 ;; Tracked objects:
  2097 ;;		On entry : 0/0
  2098 ;;		On exit  : 0/0
  2099 ;;		Unchanged: 0/0
  2100 ;; Data sizes:     COMRAM   BANK0   BANK1   BANK2   BANK3   BANK4   BANK5   BANK6   BANK7   BANK8   BANK9  BANK10  BANK1
      +1  BANK12  BANK13  BANK14  BANK15
  2101 ;;      Params:         0       0       0       0       0       0       0       0       0       0       0       0       
      +0       0       0       0       0
  2102 ;;      Locals:         0       0       0       0       0       0       0       0       0       0       0       0       
      +0       0       0       0       0
  2103 ;;      Temps:          0       0       0       0       0       0       0       0       0       0       0       0       
      +0       0       0       0       0
  2104 ;;      Totals:         0       0       0       0       0       0       0       0       0       0       0       0       
      +0       0       0       0       0
  2105 ;;Total ram usage:        0 bytes
  2106 ;; Hardware stack levels used: 1
  2107 ;; This function calls:
  2108 ;;		Nothing
  2109 ;; This function is called by:
  2110 ;;		_SYSTEM_Initialize
  2111 ;; This function uses a non-reentrant model
  2112 ;;
  2113                           
  2114                           	psect	text14
  2115   0014C8                     __ptext14:
  2116                           	callstack 0
  2117   0014C8                     _PIN_MANAGER_Initialize:
  2118                           	callstack 29
  2119   0014C8                     
  2120                           ;mcc_generated_files/pin_manager.c: 60:     LATE = 0x00;
  2121   0014C8  0E00               	movlw	0
  2122   0014CA  6EBE               	movwf	190,c	;volatile
  2123                           
  2124                           ;mcc_generated_files/pin_manager.c: 61:     LATD = 0x00;
  2125   0014CC  0E00               	movlw	0
  2126   0014CE  6EBD               	movwf	189,c	;volatile
  2127                           
  2128                           ;mcc_generated_files/pin_manager.c: 62:     LATA = 0x00;
  2129   0014D0  0E00               	movlw	0
  2130   0014D2  6EBA               	movwf	186,c	;volatile
  2131                           
  2132                           ;mcc_generated_files/pin_manager.c: 63:     LATB = 0x00;
  2133   0014D4  0E00               	movlw	0
  2134   0014D6  6EBB               	movwf	187,c	;volatile
  2135                           
  2136                           ;mcc_generated_files/pin_manager.c: 64:     LATC = 0x00;
  2137   0014D8  0E00               	movlw	0
  2138   0014DA  6EBC               	movwf	188,c	;volatile
  2139                           
  2140                           ;mcc_generated_files/pin_manager.c: 69:     TRISE = 0x07;
  2141   0014DC  0E07               	movlw	7
  2142   0014DE  6EC6               	movwf	198,c	;volatile
  2143   0014E0                     
  2144                           ;mcc_generated_files/pin_manager.c: 70:     TRISA = 0xFF;
  2145   0014E0  68C2               	setf	194,c	;volatile
  2146                           
  2147                           ;mcc_generated_files/pin_manager.c: 71:     TRISB = 0xF9;
  2148   0014E2  0EF9               	movlw	249
  2149   0014E4  6EC3               	movwf	195,c	;volatile
  2150                           
  2151                           ;mcc_generated_files/pin_manager.c: 72:     TRISC = 0xBF;
  2152   0014E6  0EBF               	movlw	191
  2153   0014E8  6EC4               	movwf	196,c	;volatile
  2154                           
  2155                           ;mcc_generated_files/pin_manager.c: 73:     TRISD = 0xFC;
  2156   0014EA  0EFC               	movlw	252
  2157   0014EC  6EC5               	movwf	197,c	;volatile
  2158   0014EE                     
  2159                           ;mcc_generated_files/pin_manager.c: 78:     ANSELD = 0xFF;
  2160   0014EE  013A               	movlb	58	; () banked
  2161   0014F0  6970               	setf	112,b	;volatile
  2162                           
  2163                           ;mcc_generated_files/pin_manager.c: 79:     ANSELC = 0x7F;
  2164   0014F2  0E7F               	movlw	127
  2165   0014F4  6F60               	movwf	96,b	;volatile
  2166                           
  2167                           ;mcc_generated_files/pin_manager.c: 80:     ANSELB = 0xF9;
  2168   0014F6  0EF9               	movlw	249
  2169   0014F8  6F50               	movwf	80,b	;volatile
  2170                           
  2171                           ;mcc_generated_files/pin_manager.c: 81:     ANSELE = 0x07;
  2172   0014FA  0E07               	movlw	7
  2173   0014FC  6F80               	movwf	128,b	;volatile
  2174   0014FE                     
  2175                           ; BSR set to: 58
  2176                           ;mcc_generated_files/pin_manager.c: 82:     ANSELA = 0xFF;
  2177   0014FE  6940               	setf	64,b	;volatile
  2178                           
  2179                           ;mcc_generated_files/pin_manager.c: 87:     WPUD = 0x00;
  2180   001500  0E00               	movlw	0
  2181   001502  6F71               	movwf	113,b	;volatile
  2182                           
  2183                           ;mcc_generated_files/pin_manager.c: 88:     WPUE = 0x00;
  2184   001504  0E00               	movlw	0
  2185   001506  6F81               	movwf	129,b	;volatile
  2186                           
  2187                           ;mcc_generated_files/pin_manager.c: 89:     WPUB = 0x00;
  2188   001508  0E00               	movlw	0
  2189   00150A  6F51               	movwf	81,b	;volatile
  2190                           
  2191                           ;mcc_generated_files/pin_manager.c: 90:     WPUA = 0x00;
  2192   00150C  0E00               	movlw	0
  2193   00150E  6F41               	movwf	65,b	;volatile
  2194                           
  2195                           ;mcc_generated_files/pin_manager.c: 91:     WPUC = 0x00;
  2196   001510  0E00               	movlw	0
  2197   001512  6F61               	movwf	97,b	;volatile
  2198                           
  2199                           ;mcc_generated_files/pin_manager.c: 96:     RB1I2C = 0x00;
  2200   001514  0E00               	movlw	0
  2201   001516  6F5A               	movwf	90,b	;volatile
  2202                           
  2203                           ;mcc_generated_files/pin_manager.c: 97:     RB2I2C = 0x00;
  2204   001518  0E00               	movlw	0
  2205   00151A  6F5B               	movwf	91,b	;volatile
  2206                           
  2207                           ;mcc_generated_files/pin_manager.c: 98:     RC3I2C = 0x00;
  2208   00151C  0E00               	movlw	0
  2209   00151E  6F6A               	movwf	106,b	;volatile
  2210                           
  2211                           ;mcc_generated_files/pin_manager.c: 99:     RC4I2C = 0x00;
  2212   001520  0E00               	movlw	0
  2213   001522  6F6B               	movwf	107,b	;volatile
  2214                           
  2215                           ;mcc_generated_files/pin_manager.c: 100:     RD0I2C = 0x00;
  2216   001524  0E00               	movlw	0
  2217   001526  6F7A               	movwf	122,b	;volatile
  2218                           
  2219                           ;mcc_generated_files/pin_manager.c: 101:     RD1I2C = 0x00;
  2220   001528  0E00               	movlw	0
  2221   00152A  6F7B               	movwf	123,b	;volatile
  2222                           
  2223                           ;mcc_generated_files/pin_manager.c: 106:     ODCONE = 0x00;
  2224   00152C  0E00               	movlw	0
  2225   00152E  6F82               	movwf	130,b	;volatile
  2226                           
  2227                           ;mcc_generated_files/pin_manager.c: 107:     ODCONA = 0x00;
  2228   001530  0E00               	movlw	0
  2229   001532  6F42               	movwf	66,b	;volatile
  2230                           
  2231                           ;mcc_generated_files/pin_manager.c: 108:     ODCONB = 0x26;
  2232   001534  0E26               	movlw	38
  2233   001536  6F52               	movwf	82,b	;volatile
  2234                           
  2235                           ;mcc_generated_files/pin_manager.c: 109:     ODCONC = 0x18;
  2236   001538  0E18               	movlw	24
  2237   00153A  6F62               	movwf	98,b	;volatile
  2238                           
  2239                           ;mcc_generated_files/pin_manager.c: 110:     ODCOND = 0x00;
  2240   00153C  0E00               	movlw	0
  2241   00153E  6F72               	movwf	114,b	;volatile
  2242   001540                     
  2243                           ; BSR set to: 58
  2244                           ;mcc_generated_files/pin_manager.c: 115:     SLRCONA = 0xFF;
  2245   001540  6943               	setf	67,b	;volatile
  2246   001542                     
  2247                           ; BSR set to: 58
  2248                           ;mcc_generated_files/pin_manager.c: 116:     SLRCONB = 0xFF;
  2249   001542  6953               	setf	83,b	;volatile
  2250   001544                     
  2251                           ; BSR set to: 58
  2252                           ;mcc_generated_files/pin_manager.c: 117:     SLRCONC = 0xFF;
  2253   001544  6963               	setf	99,b	;volatile
  2254   001546                     
  2255                           ; BSR set to: 58
  2256                           ;mcc_generated_files/pin_manager.c: 118:     SLRCOND = 0xFF;
  2257   001546  6973               	setf	115,b	;volatile
  2258                           
  2259                           ;mcc_generated_files/pin_manager.c: 119:     SLRCONE = 0x07;
  2260   001548  0E07               	movlw	7
  2261   00154A  6F83               	movwf	131,b	;volatile
  2262   00154C                     
  2263                           ; BSR set to: 58
  2264                           ;mcc_generated_files/pin_manager.c: 124:     INLVLA = 0xFF;
  2265   00154C  6944               	setf	68,b	;volatile
  2266   00154E                     
  2267                           ; BSR set to: 58
  2268                           ;mcc_generated_files/pin_manager.c: 125:     INLVLB = 0xFF;
  2269   00154E  6954               	setf	84,b	;volatile
  2270   001550                     
  2271                           ; BSR set to: 58
  2272                           ;mcc_generated_files/pin_manager.c: 126:     INLVLC = 0xFF;
  2273   001550  6964               	setf	100,b	;volatile
  2274   001552                     
  2275                           ; BSR set to: 58
  2276                           ;mcc_generated_files/pin_manager.c: 127:     INLVLD = 0xFF;
  2277   001552  6974               	setf	116,b	;volatile
  2278                           
  2279                           ;mcc_generated_files/pin_manager.c: 128:     INLVLE = 0x0F;
  2280   001554  0E0F               	movlw	15
  2281   001556  6F84               	movwf	132,b	;volatile
  2282                           
  2283                           ;mcc_generated_files/pin_manager.c: 137:     I2C1SDAPPS = 0x0A;
  2284   001558  0E0A               	movlw	10
  2285   00155A  6FE2               	movwf	226,b	;volatile
  2286                           
  2287                           ;mcc_generated_files/pin_manager.c: 138:     RB1PPS = 0x21;
  2288   00155C  0E21               	movlw	33
  2289   00155E  6F09               	movwf	9,b	;volatile
  2290                           
  2291                           ;mcc_generated_files/pin_manager.c: 139:     RB2PPS = 0x22;
  2292   001560  0E22               	movlw	34
  2293   001562  6F0A               	movwf	10,b	;volatile
  2294                           
  2295                           ;mcc_generated_files/pin_manager.c: 140:     RC6PPS = 0x13;
  2296   001564  0E13               	movlw	19
  2297   001566  6F16               	movwf	22,b	;volatile
  2298                           
  2299                           ;mcc_generated_files/pin_manager.c: 141:     U1RXPPS = 0x17;
  2300   001568  0E17               	movlw	23
  2301   00156A  6FE5               	movwf	229,b	;volatile
  2302                           
  2303                           ;mcc_generated_files/pin_manager.c: 142:     I2C1SCLPPS = 0x09;
  2304   00156C  0E09               	movlw	9
  2305   00156E  6FE1               	movwf	225,b	;volatile
  2306   001570                     
  2307                           ; BSR set to: 58
  2308   001570  0012               	return		;funcret
  2309   001572                     __end_of_PIN_MANAGER_Initialize:
  2310                           	callstack 0
  2311                           
  2312 ;; *************** function _OSCILLATOR_Initialize *****************
  2313 ;; Defined at:
  2314 ;;		line 59 in file "mcc_generated_files/mcc.c"
  2315 ;; Parameters:    Size  Location     Type
  2316 ;;		None
  2317 ;; Auto vars:     Size  Location     Type
  2318 ;;		None
  2319 ;; Return value:  Size  Location     Type
  2320 ;;                  1    wreg      void 
  2321 ;; Registers used:
  2322 ;;		wreg, status,2
  2323 ;; Tracked objects:
  2324 ;;		On entry : 0/0
  2325 ;;		On exit  : 0/0
  2326 ;;		Unchanged: 0/0
  2327 ;; Data sizes:     COMRAM   BANK0   BANK1   BANK2   BANK3   BANK4   BANK5   BANK6   BANK7   BANK8   BANK9  BANK10  BANK1
      +1  BANK12  BANK13  BANK14  BANK15
  2328 ;;      Params:         0       0       0       0       0       0       0       0       0       0       0       0       
      +0       0       0       0       0
  2329 ;;      Locals:         0       0       0       0       0       0       0       0       0       0       0       0       
      +0       0       0       0       0
  2330 ;;      Temps:          0       0       0       0       0       0       0       0       0       0       0       0       
      +0       0       0       0       0
  2331 ;;      Totals:         0       0       0       0       0       0       0       0       0       0       0       0       
      +0       0       0       0       0
  2332 ;;Total ram usage:        0 bytes
  2333 ;; Hardware stack levels used: 1
  2334 ;; This function calls:
  2335 ;;		Nothing
  2336 ;; This function is called by:
  2337 ;;		_SYSTEM_Initialize
  2338 ;; This function uses a non-reentrant model
  2339 ;;
  2340                           
  2341                           	psect	text15
  2342   001F2A                     __ptext15:
  2343                           	callstack 0
  2344   001F2A                     _OSCILLATOR_Initialize:
  2345                           	callstack 29
  2346   001F2A                     
  2347                           ;mcc_generated_files/mcc.c: 62:     OSCCON1 = 0x71;
  2348   001F2A  0E71               	movlw	113
  2349   001F2C  0139               	movlb	57	; () banked
  2350   001F2E  6FD9               	movwf	217,b	;volatile
  2351                           
  2352                           ;mcc_generated_files/mcc.c: 64:     OSCCON3 = 0x00;
  2353   001F30  0E00               	movlw	0
  2354   001F32  6FDB               	movwf	219,b	;volatile
  2355                           
  2356                           ;mcc_generated_files/mcc.c: 66:     OSCEN = 0x00;
  2357   001F34  0E00               	movlw	0
  2358   001F36  6FDD               	movwf	221,b	;volatile
  2359                           
  2360                           ;mcc_generated_files/mcc.c: 68:     OSCFRQ = 0x01;
  2361   001F38  0E01               	movlw	1
  2362   001F3A  6FDF               	movwf	223,b	;volatile
  2363                           
  2364                           ;mcc_generated_files/mcc.c: 70:     OSCTUNE = 0x00;
  2365   001F3C  0E00               	movlw	0
  2366   001F3E  6FDE               	movwf	222,b	;volatile
  2367   001F40                     
  2368                           ; BSR set to: 57
  2369   001F40  0012               	return		;funcret
  2370   001F42                     __end_of_OSCILLATOR_Initialize:
  2371                           	callstack 0
  2372                           
  2373 ;; *************** function _I2C1_Initialize *****************
  2374 ;; Defined at:
  2375 ;;		line 183 in file "mcc_generated_files/i2c1_master.c"
  2376 ;; Parameters:    Size  Location     Type
  2377 ;;		None
  2378 ;; Auto vars:     Size  Location     Type
  2379 ;;		None
  2380 ;; Return value:  Size  Location     Type
  2381 ;;                  1    wreg      void 
  2382 ;; Registers used:
  2383 ;;		wreg, status,2
  2384 ;; Tracked objects:
  2385 ;;		On entry : 0/0
  2386 ;;		On exit  : 0/0
  2387 ;;		Unchanged: 0/0
  2388 ;; Data sizes:     COMRAM   BANK0   BANK1   BANK2   BANK3   BANK4   BANK5   BANK6   BANK7   BANK8   BANK9  BANK10  BANK1
      +1  BANK12  BANK13  BANK14  BANK15
  2389 ;;      Params:         0       0       0       0       0       0       0       0       0       0       0       0       
      +0       0       0       0       0
  2390 ;;      Locals:         0       0       0       0       0       0       0       0       0       0       0       0       
      +0       0       0       0       0
  2391 ;;      Temps:          0       0       0       0       0       0       0       0       0       0       0       0       
      +0       0       0       0       0
  2392 ;;      Totals:         0       0       0       0       0       0       0       0       0       0       0       0       
      +0       0       0       0       0
  2393 ;;Total ram usage:        0 bytes
  2394 ;; Hardware stack levels used: 1
  2395 ;; This function calls:
  2396 ;;		Nothing
  2397 ;; This function is called by:
  2398 ;;		_SYSTEM_Initialize
  2399 ;; This function uses a non-reentrant model
  2400 ;;
  2401                           
  2402                           	psect	text16
  2403   001E74                     __ptext16:
  2404                           	callstack 0
  2405   001E74                     _I2C1_Initialize:
  2406                           	callstack 29
  2407   001E74                     
  2408                           ;mcc_generated_files/i2c1_master.c: 186:     I2C1CON0 = 0x04;
  2409   001E74  0E04               	movlw	4
  2410   001E76  013D               	movlb	61	; () banked
  2411   001E78  6F73               	movwf	115,b	;volatile
  2412                           
  2413                           ;mcc_generated_files/i2c1_master.c: 188:     I2C1CON1 = 0x80;
  2414   001E7A  0E80               	movlw	128
  2415   001E7C  6F74               	movwf	116,b	;volatile
  2416                           
  2417                           ;mcc_generated_files/i2c1_master.c: 190:     I2C1CON2 = 0x18;
  2418   001E7E  0E18               	movlw	24
  2419   001E80  6F75               	movwf	117,b	;volatile
  2420                           
  2421                           ;mcc_generated_files/i2c1_master.c: 192:     I2C1CLK = 0x00;
  2422   001E82  0E00               	movlw	0
  2423   001E84  6F7B               	movwf	123,b	;volatile
  2424                           
  2425                           ;mcc_generated_files/i2c1_master.c: 194:     I2C1PIR = 0x00;
  2426   001E86  0E00               	movlw	0
  2427   001E88  6F79               	movwf	121,b	;volatile
  2428                           
  2429                           ;mcc_generated_files/i2c1_master.c: 196:     I2C1PIE = 0x00;
  2430   001E8A  0E00               	movlw	0
  2431   001E8C  6F7A               	movwf	122,b	;volatile
  2432                           
  2433                           ;mcc_generated_files/i2c1_master.c: 198:     I2C1ERR = 0x00;
  2434   001E8E  0E00               	movlw	0
  2435   001E90  6F76               	movwf	118,b	;volatile
  2436   001E92                     
  2437                           ; BSR set to: 61
  2438                           ;mcc_generated_files/i2c1_master.c: 200:     I2C1CNT = 0xFF;
  2439   001E92  696C               	setf	108,b	;volatile
  2440   001E94                     
  2441                           ; BSR set to: 61
  2442   001E94  0012               	return		;funcret
  2443   001E96                     __end_of_I2C1_Initialize:
  2444                           	callstack 0
  2445                           
  2446 ;; *************** function _EEPROM_WriteByte *****************
  2447 ;; Defined at:
  2448 ;;		line 102 in file "main.c"
  2449 ;; Parameters:    Size  Location     Type
  2450 ;;  deviceAddres    1    wreg     unsigned char 
  2451 ;;  memoryAddres    2   27[COMRAM] unsigned short 
  2452 ;;  data            1   29[COMRAM] unsigned char 
  2453 ;; Auto vars:     Size  Location     Type
  2454 ;;  deviceAddres    1   31[COMRAM] unsigned char 
  2455 ;;  buffer          3   32[COMRAM] unsigned char [3]
  2456 ;; Return value:  Size  Location     Type
  2457 ;;                  1    wreg      void 
  2458 ;; Registers used:
  2459 ;;		wreg, fsr2l, fsr2h, status,2, status,0, pcl, pclath, pclatu, tosl, tblptrl, tblptrh, tblptru, prodl, prodh, cstack
  2460 ;; Tracked objects:
  2461 ;;		On entry : 0/0
  2462 ;;		On exit  : 0/0
  2463 ;;		Unchanged: 0/0
  2464 ;; Data sizes:     COMRAM   BANK0   BANK1   BANK2   BANK3   BANK4   BANK5   BANK6   BANK7   BANK8   BANK9  BANK10  BANK1
      +1  BANK12  BANK13  BANK14  BANK15
  2465 ;;      Params:         3       0       0       0       0       0       0       0       0       0       0       0       
      +0       0       0       0       0
  2466 ;;      Locals:         4       0       0       0       0       0       0       0       0       0       0       0       
      +0       0       0       0       0
  2467 ;;      Temps:          1       0       0       0       0       0       0       0       0       0       0       0       
      +0       0       0       0       0
  2468 ;;      Totals:         8       0       0       0       0       0       0       0       0       0       0       0       
      +0       0       0       0       0
  2469 ;;Total ram usage:        8 bytes
  2470 ;; Hardware stack levels used: 1
  2471 ;; Hardware stack levels required when called: 12
  2472 ;; This function calls:
  2473 ;;		_I2C1_WriteNBytes
  2474 ;; This function is called by:
  2475 ;;		_main
  2476 ;; This function uses a non-reentrant model
  2477 ;;
  2478                           
  2479                           	psect	text17
  2480   001CC6                     __ptext17:
  2481                           	callstack 0
  2482   001CC6                     _EEPROM_WriteByte:
  2483                           	callstack 18
  2484                           
  2485                           ; BSR set to: 61
  2486                           ;incstack = 0
  2487                           ;EEPROM_WriteByte@deviceAddress stored from wreg
  2488   001CC6  6E20               	movwf	EEPROM_WriteByte@deviceAddress^0,c
  2489   001CC8                     
  2490                           ;main.c: 103:     uint8_t buffer[3];;main.c: 104:     buffer[0] = (memoryAddress >> 8) &
      +                           0xFF;
  2491   001CC8  501D               	movf	(EEPROM_WriteByte@memoryAddress+1)^0,w,c
  2492   001CCA  6E21               	movwf	EEPROM_WriteByte@buffer^0,c
  2493   001CCC                     
  2494                           ;main.c: 105:     buffer[1] = memoryAddress & 0xFF;
  2495   001CCC  C01C  F022         	movff	EEPROM_WriteByte@memoryAddress,EEPROM_WriteByte@buffer+1
  2496   001CD0                     
  2497                           ;main.c: 106:     buffer[2] = data;
  2498   001CD0  C01E  F023         	movff	EEPROM_WriteByte@data,EEPROM_WriteByte@buffer+2
  2499   001CD4                     
  2500                           ;main.c: 108:     I2C1_WriteNBytes(deviceAddress, buffer, 3);
  2501   001CD4  0E21               	movlw	low EEPROM_WriteByte@buffer
  2502   001CD6  6E18               	movwf	I2C1_WriteNBytes@data^0,c
  2503   001CD8  0E00               	movlw	0
  2504   001CDA  6E1A               	movwf	(I2C1_WriteNBytes@len+1)^0,c
  2505   001CDC  0E03               	movlw	3
  2506   001CDE  6E19               	movwf	I2C1_WriteNBytes@len^0,c
  2507   001CE0  5020               	movf	EEPROM_WriteByte@deviceAddress^0,w,c
  2508   001CE2  EC4B  F00D         	call	_I2C1_WriteNBytes
  2509   001CE6                     
  2510                           ;main.c: 110:     _delay((unsigned long)((5)*(8000000/4000.0)));
  2511   001CE6  0E0D               	movlw	13
  2512   001CE8  6E1F               	movwf	??_EEPROM_WriteByte^0,c
  2513   001CEA  0EFC               	movlw	252
  2514   001CEC                     u1547:
  2515   001CEC  2EE8               	decfsz	wreg,f,c
  2516   001CEE  D7FE               	bra	u1547
  2517   001CF0  2E1F               	decfsz	??_EEPROM_WriteByte^0,f,c
  2518   001CF2  D7FC               	bra	u1547
  2519   001CF4  0012               	return		;funcret
  2520   001CF6                     __end_of_EEPROM_WriteByte:
  2521                           	callstack 0
  2522                           
  2523 ;; *************** function _EEPROM_ReadByte *****************
  2524 ;; Defined at:
  2525 ;;		line 114 in file "main.c"
  2526 ;; Parameters:    Size  Location     Type
  2527 ;;  deviceAddres    1    wreg     unsigned char 
  2528 ;;  memoryAddres    2   27[COMRAM] unsigned short 
  2529 ;; Auto vars:     Size  Location     Type
  2530 ;;  deviceAddres    1   31[COMRAM] unsigned char 
  2531 ;;  addressBuffe    2   29[COMRAM] unsigned char [2]
  2532 ;;  data            1   32[COMRAM] unsigned char 
  2533 ;; Return value:  Size  Location     Type
  2534 ;;                  1    wreg      unsigned char 
  2535 ;; Registers used:
  2536 ;;		wreg, fsr2l, fsr2h, status,2, status,0, pcl, pclath, pclatu, tosl, tblptrl, tblptrh, tblptru, prodl, prodh, cstack
  2537 ;; Tracked objects:
  2538 ;;		On entry : 0/0
  2539 ;;		On exit  : 0/0
  2540 ;;		Unchanged: 0/0
  2541 ;; Data sizes:     COMRAM   BANK0   BANK1   BANK2   BANK3   BANK4   BANK5   BANK6   BANK7   BANK8   BANK9  BANK10  BANK1
      +1  BANK12  BANK13  BANK14  BANK15
  2542 ;;      Params:         2       0       0       0       0       0       0       0       0       0       0       0       
      +0       0       0       0       0
  2543 ;;      Locals:         4       0       0       0       0       0       0       0       0       0       0       0       
      +0       0       0       0       0
  2544 ;;      Temps:          0       0       0       0       0       0       0       0       0       0       0       0       
      +0       0       0       0       0
  2545 ;;      Totals:         6       0       0       0       0       0       0       0       0       0       0       0       
      +0       0       0       0       0
  2546 ;;Total ram usage:        6 bytes
  2547 ;; Hardware stack levels used: 1
  2548 ;; Hardware stack levels required when called: 12
  2549 ;; This function calls:
  2550 ;;		_I2C1_ReadNBytes
  2551 ;;		_I2C1_WriteNBytes
  2552 ;; This function is called by:
  2553 ;;		_main
  2554 ;; This function uses a non-reentrant model
  2555 ;;
  2556                           
  2557                           	psect	text18
  2558   001C5C                     __ptext18:
  2559                           	callstack 0
  2560   001C5C                     _EEPROM_ReadByte:
  2561                           	callstack 18
  2562                           
  2563                           ;incstack = 0
  2564                           ;EEPROM_ReadByte@deviceAddress stored from wreg
  2565   001C5C  6E20               	movwf	EEPROM_ReadByte@deviceAddress^0,c
  2566   001C5E                     
  2567                           ;main.c: 115:     uint8_t addressBuffer[2];;main.c: 116:     addressBuffer[0] = (memoryA
      +                          ddress >> 8) & 0xFF;
  2568   001C5E  501D               	movf	(EEPROM_ReadByte@memoryAddress+1)^0,w,c
  2569   001C60  6E1E               	movwf	EEPROM_ReadByte@addressBuffer^0,c
  2570   001C62                     
  2571                           ;main.c: 117:     addressBuffer[1] = memoryAddress & 0xFF;
  2572   001C62  C01C  F01F         	movff	EEPROM_ReadByte@memoryAddress,EEPROM_ReadByte@addressBuffer+1
  2573   001C66                     
  2574                           ;main.c: 119:     I2C1_WriteNBytes(deviceAddress, addressBuffer, 2);
  2575   001C66  0E1E               	movlw	low EEPROM_ReadByte@addressBuffer
  2576   001C68  6E18               	movwf	I2C1_WriteNBytes@data^0,c
  2577   001C6A  0E00               	movlw	0
  2578   001C6C  6E1A               	movwf	(I2C1_WriteNBytes@len+1)^0,c
  2579   001C6E  0E02               	movlw	2
  2580   001C70  6E19               	movwf	I2C1_WriteNBytes@len^0,c
  2581   001C72  5020               	movf	EEPROM_ReadByte@deviceAddress^0,w,c
  2582   001C74  EC4B  F00D         	call	_I2C1_WriteNBytes
  2583   001C78                     
  2584                           ;main.c: 121:     uint8_t data = 0;
  2585   001C78  0E00               	movlw	0
  2586   001C7A  6E21               	movwf	EEPROM_ReadByte@data^0,c
  2587   001C7C                     
  2588                           ;main.c: 122:     I2C1_ReadNBytes(deviceAddress, &data, 1);
  2589   001C7C  0E21               	movlw	low EEPROM_ReadByte@data
  2590   001C7E  6E18               	movwf	I2C1_ReadNBytes@data^0,c
  2591   001C80  0E00               	movlw	0
  2592   001C82  6E1A               	movwf	(I2C1_ReadNBytes@len+1)^0,c
  2593   001C84  0E01               	movlw	1
  2594   001C86  6E19               	movwf	I2C1_ReadNBytes@len^0,c
  2595   001C88  5020               	movf	EEPROM_ReadByte@deviceAddress^0,w,c
  2596   001C8A  ECEB  F00D         	call	_I2C1_ReadNBytes
  2597   001C8E                     
  2598                           ;main.c: 124:     return data;
  2599   001C8E  5021               	movf	EEPROM_ReadByte@data^0,w,c
  2600   001C90  0012               	return		;funcret
  2601   001C92                     __end_of_EEPROM_ReadByte:
  2602                           	callstack 0
  2603                           
  2604 ;; *************** function _I2C1_WriteNBytes *****************
  2605 ;; Defined at:
  2606 ;;		line 111 in file "mcc_generated_files/examples/i2c1_master_example.c"
  2607 ;; Parameters:    Size  Location     Type
  2608 ;;  address         1    wreg     unsigned char 
  2609 ;;  data            1   23[COMRAM] PTR unsigned char 
  2610 ;;		 -> EEPROM_ReadByte@addressBuffer(2), EEPROM_WriteByte@buffer(3), 
  2611 ;;  len             2   24[COMRAM] unsigned int 
  2612 ;; Auto vars:     Size  Location     Type
  2613 ;;  address         1   26[COMRAM] unsigned char 
  2614 ;; Return value:  Size  Location     Type
  2615 ;;                  1    wreg      void 
  2616 ;; Registers used:
  2617 ;;		wreg, fsr2l, fsr2h, status,2, status,0, pcl, pclath, pclatu, tosl, tblptrl, tblptrh, tblptru, prodl, prodh, cstack
  2618 ;; Tracked objects:
  2619 ;;		On entry : 0/0
  2620 ;;		On exit  : 0/0
  2621 ;;		Unchanged: 0/0
  2622 ;; Data sizes:     COMRAM   BANK0   BANK1   BANK2   BANK3   BANK4   BANK5   BANK6   BANK7   BANK8   BANK9  BANK10  BANK1
      +1  BANK12  BANK13  BANK14  BANK15
  2623 ;;      Params:         3       0       0       0       0       0       0       0       0       0       0       0       
      +0       0       0       0       0
  2624 ;;      Locals:         1       0       0       0       0       0       0       0       0       0       0       0       
      +0       0       0       0       0
  2625 ;;      Temps:          0       0       0       0       0       0       0       0       0       0       0       0       
      +0       0       0       0       0
  2626 ;;      Totals:         4       0       0       0       0       0       0       0       0       0       0       0       
      +0       0       0       0       0
  2627 ;;Total ram usage:        4 bytes
  2628 ;; Hardware stack levels used: 1
  2629 ;; Hardware stack levels required when called: 11
  2630 ;; This function calls:
  2631 ;;		_I2C1_Close
  2632 ;;		_I2C1_MasterWrite
  2633 ;;		_I2C1_Open
  2634 ;;		_I2C1_SetAddressNackCallback
  2635 ;;		_I2C1_SetBuffer
  2636 ;; This function is called by:
  2637 ;;		_EEPROM_WriteByte
  2638 ;;		_EEPROM_ReadByte
  2639 ;; This function uses a non-reentrant model
  2640 ;;
  2641                           
  2642                           	psect	text19
  2643   001A96                     __ptext19:
  2644                           	callstack 0
  2645   001A96                     _I2C1_WriteNBytes:
  2646                           	callstack 18
  2647                           
  2648                           ;incstack = 0
  2649                           ;I2C1_WriteNBytes@address stored from wreg
  2650   001A96  6E1B               	movwf	I2C1_WriteNBytes@address^0,c
  2651   001A98                     l3334:
  2652   001A98  501B               	movf	I2C1_WriteNBytes@address^0,w,c
  2653   001A9A  EC53  F00B         	call	_I2C1_Open
  2654   001A9E  0900               	iorlw	0
  2655   001AA0  B4D8               	btfsc	status,2,c
  2656   001AA2  EF55  F00D         	goto	u1341
  2657   001AA6  EF57  F00D         	goto	u1340
  2658   001AAA                     u1341:
  2659   001AAA  EF4C  F00D         	goto	l3334
  2660   001AAE                     u1340:
  2661   001AAE                     
  2662                           ;mcc_generated_files/examples/i2c1_master_example.c: 114:     I2C1_SetBuffer(data,len);
  2663   001AAE  C018  F001         	movff	I2C1_WriteNBytes@data,I2C1_SetBuffer@buffer
  2664   001AB2  6A02               	clrf	(I2C1_SetBuffer@buffer+1)^0,c
  2665   001AB4  C019  F003         	movff	I2C1_WriteNBytes@len,I2C1_SetBuffer@bufferSize
  2666   001AB8  C01A  F004         	movff	I2C1_WriteNBytes@len+1,I2C1_SetBuffer@bufferSize+1
  2667   001ABC  EC4B  F00F         	call	_I2C1_SetBuffer	;wreg free
  2668   001AC0                     
  2669                           ;mcc_generated_files/examples/i2c1_master_example.c: 115:     I2C1_SetAddressNackCallbac
      +                          k(((void*)0),((void*)0));
  2670   001AC0  0E00               	movlw	0
  2671   001AC2  6E06               	movwf	I2C1_SetAddressNackCallback@cb^0,c
  2672   001AC4  0E00               	movlw	0
  2673   001AC6  6E07               	movwf	(I2C1_SetAddressNackCallback@cb+1)^0,c
  2674   001AC8  0E00               	movlw	0
  2675   001ACA  6E08               	movwf	I2C1_SetAddressNackCallback@ptr^0,c
  2676   001ACC  0E00               	movlw	0
  2677   001ACE  6E09               	movwf	(I2C1_SetAddressNackCallback@ptr+1)^0,c
  2678   001AD0  ECA1  F00F         	call	_I2C1_SetAddressNackCallback	;wreg free
  2679   001AD4                     
  2680                           ;mcc_generated_files/examples/i2c1_master_example.c: 116:     I2C1_MasterWrite();
  2681   001AD4  EC59  F010         	call	_I2C1_MasterWrite	;wreg free
  2682   001AD8                     l3342:
  2683   001AD8  ECFF  F00E         	call	_I2C1_Close	;wreg free
  2684   001ADC  06E8               	decf	wreg,f,c
  2685   001ADE  B4D8               	btfsc	status,2,c
  2686   001AE0  EF74  F00D         	goto	u1351
  2687   001AE4  EF76  F00D         	goto	u1350
  2688   001AE8                     u1351:
  2689   001AE8  EF6C  F00D         	goto	l3342
  2690   001AEC                     u1350:
  2691   001AEC  0012               	return		;funcret
  2692   001AEE                     __end_of_I2C1_WriteNBytes:
  2693                           	callstack 0
  2694                           
  2695 ;; *************** function _I2C1_SetAddressNackCallback *****************
  2696 ;; Defined at:
  2697 ;;		line 313 in file "mcc_generated_files/i2c1_master.c"
  2698 ;; Parameters:    Size  Location     Type
  2699 ;;  cb              2    5[COMRAM] PTR FTN(PTR void ,)enum 
  2700 ;;		 -> NULL(1), 
  2701 ;;  ptr             2    7[COMRAM] PTR void 
  2702 ;;		 -> NULL(0), 
  2703 ;; Auto vars:     Size  Location     Type
  2704 ;;		None
  2705 ;; Return value:  Size  Location     Type
  2706 ;;                  1    wreg      void 
  2707 ;; Registers used:
  2708 ;;		wreg, fsr2l, fsr2h, status,2, status,0, prodl, prodh, cstack
  2709 ;; Tracked objects:
  2710 ;;		On entry : 0/0
  2711 ;;		On exit  : 0/0
  2712 ;;		Unchanged: 0/0
  2713 ;; Data sizes:     COMRAM   BANK0   BANK1   BANK2   BANK3   BANK4   BANK5   BANK6   BANK7   BANK8   BANK9  BANK10  BANK1
      +1  BANK12  BANK13  BANK14  BANK15
  2714 ;;      Params:         4       0       0       0       0       0       0       0       0       0       0       0       
      +0       0       0       0       0
  2715 ;;      Locals:         0       0       0       0       0       0       0       0       0       0       0       0       
      +0       0       0       0       0
  2716 ;;      Temps:          0       0       0       0       0       0       0       0       0       0       0       0       
      +0       0       0       0       0
  2717 ;;      Totals:         4       0       0       0       0       0       0       0       0       0       0       0       
      +0       0       0       0       0
  2718 ;;Total ram usage:        4 bytes
  2719 ;; Hardware stack levels used: 1
  2720 ;; Hardware stack levels required when called: 1
  2721 ;; This function calls:
  2722 ;;		_I2C1_SetCallback
  2723 ;; This function is called by:
  2724 ;;		_I2C1_WriteNBytes
  2725 ;;		_I2C1_Read1ByteRegister
  2726 ;;		_I2C1_Read2ByteRegister
  2727 ;;		_I2C1_Write1ByteRegister
  2728 ;;		_I2C1_Write2ByteRegister
  2729 ;;		_I2C1_ReadDataBlock
  2730 ;; This function uses a non-reentrant model
  2731 ;;
  2732                           
  2733                           	psect	text20
  2734   001F42                     __ptext20:
  2735                           	callstack 0
  2736   001F42                     _I2C1_SetAddressNackCallback:
  2737                           	callstack 27
  2738   001F42                     
  2739                           ;mcc_generated_files/i2c1_master.c: 313: void I2C1_SetAddressNackCallback(i2c1_callback_
      +                          t cb, void *ptr);mcc_generated_files/i2c1_master.c: 314: {;mcc_generated_files/i2c1_mast
      +                          er.c: 315:     I2C1_SetCallback(I2C1_ADDR_NACK, cb, ptr);
  2740   001F42  C006  F001         	movff	I2C1_SetAddressNackCallback@cb,I2C1_SetCallback@cb
  2741   001F46  C007  F002         	movff	I2C1_SetAddressNackCallback@cb+1,I2C1_SetCallback@cb+1
  2742   001F4A  C008  F003         	movff	I2C1_SetAddressNackCallback@ptr,I2C1_SetCallback@ptr
  2743   001F4E  C009  F004         	movff	I2C1_SetAddressNackCallback@ptr+1,I2C1_SetCallback@ptr+1
  2744   001F52  0E02               	movlw	2
  2745   001F54  EC7F  F00C         	call	_I2C1_SetCallback
  2746   001F58  0012               	return		;funcret
  2747   001F5A                     __end_of_I2C1_SetAddressNackCallback:
  2748                           	callstack 0
  2749                           
  2750 ;; *************** function _I2C1_MasterWrite *****************
  2751 ;; Defined at:
  2752 ;;		line 281 in file "mcc_generated_files/i2c1_master.c"
  2753 ;; Parameters:    Size  Location     Type
  2754 ;;		None
  2755 ;; Auto vars:     Size  Location     Type
  2756 ;;		None
  2757 ;; Return value:  Size  Location     Type
  2758 ;;                  1    wreg      enum E358
  2759 ;; Registers used:
  2760 ;;		wreg, fsr2l, fsr2h, status,2, status,0, pcl, pclath, pclatu, tosl, tblptrl, tblptrh, tblptru, prodl, prodh, cstack
  2761 ;; Tracked objects:
  2762 ;;		On entry : 0/0
  2763 ;;		On exit  : 0/0
  2764 ;;		Unchanged: 0/0
  2765 ;; Data sizes:     COMRAM   BANK0   BANK1   BANK2   BANK3   BANK4   BANK5   BANK6   BANK7   BANK8   BANK9  BANK10  BANK1
      +1  BANK12  BANK13  BANK14  BANK15
  2766 ;;      Params:         0       0       0       0       0       0       0       0       0       0       0       0       
      +0       0       0       0       0
  2767 ;;      Locals:         0       0       0       0       0       0       0       0       0       0       0       0       
      +0       0       0       0       0
  2768 ;;      Temps:          0       0       0       0       0       0       0       0       0       0       0       0       
      +0       0       0       0       0
  2769 ;;      Totals:         0       0       0       0       0       0       0       0       0       0       0       0       
      +0       0       0       0       0
  2770 ;;Total ram usage:        0 bytes
  2771 ;; Hardware stack levels used: 1
  2772 ;; Hardware stack levels required when called: 10
  2773 ;; This function calls:
  2774 ;;		_I2C1_MasterOperation
  2775 ;; This function is called by:
  2776 ;;		_I2C1_WriteNBytes
  2777 ;;		_I2C1_Read1ByteRegister
  2778 ;;		_I2C1_Read2ByteRegister
  2779 ;;		_I2C1_Write1ByteRegister
  2780 ;;		_I2C1_Write2ByteRegister
  2781 ;;		_I2C1_ReadDataBlock
  2782 ;; This function uses a non-reentrant model
  2783 ;;
  2784                           
  2785                           	psect	text21
  2786   0020B2                     __ptext21:
  2787                           	callstack 0
  2788   0020B2                     _I2C1_MasterWrite:
  2789                           	callstack 18
  2790   0020B2                     
  2791                           ;mcc_generated_files/i2c1_master.c: 283:     return I2C1_MasterOperation(0);;	Return val
      +                          ue of _I2C1_MasterWrite is never used
  2792   0020B2  0E00               	movlw	0
  2793   0020B4  ECA0  F00D         	call	_I2C1_MasterOperation
  2794   0020B8  0012               	return		;funcret
  2795   0020BA                     __end_of_I2C1_MasterWrite:
  2796                           	callstack 0
  2797                           
  2798 ;; *************** function _I2C1_ReadNBytes *****************
  2799 ;; Defined at:
  2800 ;;		line 120 in file "mcc_generated_files/examples/i2c1_master_example.c"
  2801 ;; Parameters:    Size  Location     Type
  2802 ;;  address         1    wreg     unsigned char 
  2803 ;;  data            1   23[COMRAM] PTR unsigned char 
  2804 ;;		 -> EEPROM_ReadByte@data(1), 
  2805 ;;  len             2   24[COMRAM] unsigned int 
  2806 ;; Auto vars:     Size  Location     Type
  2807 ;;  address         1   26[COMRAM] unsigned char 
  2808 ;; Return value:  Size  Location     Type
  2809 ;;                  1    wreg      void 
  2810 ;; Registers used:
  2811 ;;		wreg, fsr2l, fsr2h, status,2, status,0, pcl, pclath, pclatu, tosl, tblptrl, tblptrh, tblptru, prodl, prodh, cstack
  2812 ;; Tracked objects:
  2813 ;;		On entry : 0/0
  2814 ;;		On exit  : 0/0
  2815 ;;		Unchanged: 0/0
  2816 ;; Data sizes:     COMRAM   BANK0   BANK1   BANK2   BANK3   BANK4   BANK5   BANK6   BANK7   BANK8   BANK9  BANK10  BANK1
      +1  BANK12  BANK13  BANK14  BANK15
  2817 ;;      Params:         3       0       0       0       0       0       0       0       0       0       0       0       
      +0       0       0       0       0
  2818 ;;      Locals:         1       0       0       0       0       0       0       0       0       0       0       0       
      +0       0       0       0       0
  2819 ;;      Temps:          0       0       0       0       0       0       0       0       0       0       0       0       
      +0       0       0       0       0
  2820 ;;      Totals:         4       0       0       0       0       0       0       0       0       0       0       0       
      +0       0       0       0       0
  2821 ;;Total ram usage:        4 bytes
  2822 ;; Hardware stack levels used: 1
  2823 ;; Hardware stack levels required when called: 11
  2824 ;; This function calls:
  2825 ;;		_I2C1_Close
  2826 ;;		_I2C1_MasterRead
  2827 ;;		_I2C1_Open
  2828 ;;		_I2C1_SetBuffer
  2829 ;; This function is called by:
  2830 ;;		_EEPROM_ReadByte
  2831 ;; This function uses a non-reentrant model
  2832 ;;
  2833                           
  2834                           	psect	text22
  2835   001BD6                     __ptext22:
  2836                           	callstack 0
  2837   001BD6                     _I2C1_ReadNBytes:
  2838                           	callstack 18
  2839                           
  2840                           ;incstack = 0
  2841                           ;I2C1_ReadNBytes@address stored from wreg
  2842   001BD6  6E1B               	movwf	I2C1_ReadNBytes@address^0,c
  2843   001BD8                     l3346:
  2844   001BD8  501B               	movf	I2C1_ReadNBytes@address^0,w,c
  2845   001BDA  EC53  F00B         	call	_I2C1_Open
  2846   001BDE  0900               	iorlw	0
  2847   001BE0  B4D8               	btfsc	status,2,c
  2848   001BE2  EFF5  F00D         	goto	u1361
  2849   001BE6  EFF7  F00D         	goto	u1360
  2850   001BEA                     u1361:
  2851   001BEA  EFEC  F00D         	goto	l3346
  2852   001BEE                     u1360:
  2853   001BEE                     
  2854                           ;mcc_generated_files/examples/i2c1_master_example.c: 123:     I2C1_SetBuffer(data,len);
  2855   001BEE  C018  F001         	movff	I2C1_ReadNBytes@data,I2C1_SetBuffer@buffer
  2856   001BF2  6A02               	clrf	(I2C1_SetBuffer@buffer+1)^0,c
  2857   001BF4  C019  F003         	movff	I2C1_ReadNBytes@len,I2C1_SetBuffer@bufferSize
  2858   001BF8  C01A  F004         	movff	I2C1_ReadNBytes@len+1,I2C1_SetBuffer@bufferSize+1
  2859   001BFC  EC4B  F00F         	call	_I2C1_SetBuffer	;wreg free
  2860   001C00                     
  2861                           ;mcc_generated_files/examples/i2c1_master_example.c: 124:     I2C1_MasterRead();
  2862   001C00  EC5D  F010         	call	_I2C1_MasterRead	;wreg free
  2863   001C04                     l3352:
  2864   001C04  ECFF  F00E         	call	_I2C1_Close	;wreg free
  2865   001C08  06E8               	decf	wreg,f,c
  2866   001C0A  B4D8               	btfsc	status,2,c
  2867   001C0C  EF0A  F00E         	goto	u1371
  2868   001C10  EF0C  F00E         	goto	u1370
  2869   001C14                     u1371:
  2870   001C14  EF02  F00E         	goto	l3352
  2871   001C18                     u1370:
  2872   001C18  0012               	return		;funcret
  2873   001C1A                     __end_of_I2C1_ReadNBytes:
  2874                           	callstack 0
  2875                           
  2876 ;; *************** function _I2C1_Open *****************
  2877 ;; Defined at:
  2878 ;;		line 204 in file "mcc_generated_files/i2c1_master.c"
  2879 ;; Parameters:    Size  Location     Type
  2880 ;;  address         1    wreg     unsigned char 
  2881 ;; Auto vars:     Size  Location     Type
  2882 ;;  address         1    0[COMRAM] unsigned char 
  2883 ;;  returnValue     1    1[COMRAM] enum E358
  2884 ;; Return value:  Size  Location     Type
  2885 ;;                  1    wreg      enum E358
  2886 ;; Registers used:
  2887 ;;		wreg, status,2, status,0, cstack
  2888 ;; Tracked objects:
  2889 ;;		On entry : 0/0
  2890 ;;		On exit  : 0/0
  2891 ;;		Unchanged: 0/0
  2892 ;; Data sizes:     COMRAM   BANK0   BANK1   BANK2   BANK3   BANK4   BANK5   BANK6   BANK7   BANK8   BANK9  BANK10  BANK1
      +1  BANK12  BANK13  BANK14  BANK15
  2893 ;;      Params:         0       0       0       0       0       0       0       0       0       0       0       0       
      +0       0       0       0       0
  2894 ;;      Locals:         2       0       0       0       0       0       0       0       0       0       0       0       
      +0       0       0       0       0
  2895 ;;      Temps:          0       0       0       0       0       0       0       0       0       0       0       0       
      +0       0       0       0       0
  2896 ;;      Totals:         2       0       0       0       0       0       0       0       0       0       0       0       
      +0       0       0       0       0
  2897 ;;Total ram usage:        2 bytes
  2898 ;; Hardware stack levels used: 1
  2899 ;; Hardware stack levels required when called: 1
  2900 ;; This function calls:
  2901 ;;		_I2C1_MasterClearIrq
  2902 ;;		_I2C1_MasterOpen
  2903 ;; This function is called by:
  2904 ;;		_I2C1_WriteNBytes
  2905 ;;		_I2C1_ReadNBytes
  2906 ;;		_I2C1_Read1ByteRegister
  2907 ;;		_I2C1_Read2ByteRegister
  2908 ;;		_I2C1_Write1ByteRegister
  2909 ;;		_I2C1_Write2ByteRegister
  2910 ;;		_I2C1_ReadDataBlock
  2911 ;; This function uses a non-reentrant model
  2912 ;;
  2913                           
  2914                           	psect	text23
  2915   0016A6                     __ptext23:
  2916                           	callstack 0
  2917   0016A6                     _I2C1_Open:
  2918                           	callstack 27
  2919                           
  2920                           ;incstack = 0
  2921                           ;I2C1_Open@address stored from wreg
  2922   0016A6  6E01               	movwf	I2C1_Open@address^0,c
  2923   0016A8                     
  2924                           ;mcc_generated_files/i2c1_master.c: 204: i2c1_error_t I2C1_Open(i2c1_address_t address);
      +                          mcc_generated_files/i2c1_master.c: 205: {;mcc_generated_files/i2c1_master.c: 206:     i2
      +                          c1_error_t returnValue = I2C1_BUSY;
  2925   0016A8  0E01               	movlw	1
  2926   0016AA  6E02               	movwf	I2C1_Open@returnValue^0,c
  2927   0016AC                     
  2928                           ;mcc_generated_files/i2c1_master.c: 208:     if(!I2C1_Status.inUse)
  2929   0016AC  B651               	btfsc	(_I2C1_Status+35)^0,3,c
  2930   0016AE  EF5B  F00B         	goto	u1261
  2931   0016B2  EF5D  F00B         	goto	u1260
  2932   0016B6                     u1261:
  2933   0016B6  EF98  F00B         	goto	l3236
  2934   0016BA                     u1260:
  2935   0016BA                     
  2936                           ;mcc_generated_files/i2c1_master.c: 209:     {;mcc_generated_files/i2c1_master.c: 210:  
      +                                 I2C1_Status.address = address;
  2937   0016BA  C001  F04A         	movff	I2C1_Open@address,_I2C1_Status+28
  2938   0016BE                     
  2939                           ;mcc_generated_files/i2c1_master.c: 211:         I2C1_Status.busy = 0;
  2940   0016BE  9451               	bcf	(_I2C1_Status+35)^0,2,c
  2941   0016C0                     
  2942                           ;mcc_generated_files/i2c1_master.c: 212:         I2C1_Status.inUse = 1;
  2943   0016C0  8651               	bsf	(_I2C1_Status+35)^0,3,c
  2944   0016C2                     
  2945                           ;mcc_generated_files/i2c1_master.c: 213:         I2C1_Status.addressNackCheck = 0;
  2946   0016C2  0EFC               	movlw	-4
  2947   0016C4  1651               	andwf	(_I2C1_Status+35)^0,f,c
  2948   0016C6                     
  2949                           ;mcc_generated_files/i2c1_master.c: 214:         I2C1_Status.state = I2C1_RESET;
  2950   0016C6  0E0F               	movlw	15
  2951   0016C8  6E4F               	movwf	(_I2C1_Status+33)^0,c
  2952   0016CA                     
  2953                           ;mcc_generated_files/i2c1_master.c: 215:         I2C1_Status.time_out_value = 500;
  2954   0016CA  0E01               	movlw	1
  2955   0016CC  6E49               	movwf	(_I2C1_Status+27)^0,c
  2956   0016CE  0EF4               	movlw	244
  2957   0016D0  6E48               	movwf	(_I2C1_Status+26)^0,c
  2958   0016D2                     
  2959                           ;mcc_generated_files/i2c1_master.c: 216:         I2C1_Status.bufferFree = 1;
  2960   0016D2  8851               	bsf	(_I2C1_Status+35)^0,4,c
  2961   0016D4                     
  2962                           ;mcc_generated_files/i2c1_master.c: 219:         I2C1_Status.callbackTable[I2C1_DATA_COM
      +                          PLETE]=I2C1_CallbackReturnStop;
  2963   0016D4  0E2A               	movlw	low _I2C1_CallbackReturnStop
  2964   0016D6  6E2E               	movwf	_I2C1_Status^0,c
  2965   0016D8  0E21               	movlw	high _I2C1_CallbackReturnStop
  2966   0016DA  6E2F               	movwf	(_I2C1_Status+1)^0,c
  2967   0016DC                     
  2968                           ;mcc_generated_files/i2c1_master.c: 220:         I2C1_Status.callbackPayload[I2C1_DATA_C
      +                          OMPLETE] = ((void*)0);
  2969   0016DC  0E00               	movlw	0
  2970   0016DE  6E3A               	movwf	(_I2C1_Status+12)^0,c
  2971   0016E0  0E00               	movlw	0
  2972   0016E2  6E3B               	movwf	(_I2C1_Status+13)^0,c
  2973   0016E4                     
  2974                           ;mcc_generated_files/i2c1_master.c: 221:         I2C1_Status.callbackTable[I2C1_WRITE_CO
      +                          LLISION]=I2C1_CallbackReturnStop;
  2975   0016E4  0E2A               	movlw	low _I2C1_CallbackReturnStop
  2976   0016E6  6E30               	movwf	(_I2C1_Status+2)^0,c
  2977   0016E8  0E21               	movlw	high _I2C1_CallbackReturnStop
  2978   0016EA  6E31               	movwf	(_I2C1_Status+3)^0,c
  2979   0016EC                     
  2980                           ;mcc_generated_files/i2c1_master.c: 222:         I2C1_Status.callbackPayload[I2C1_WRITE_
      +                          COLLISION] = ((void*)0);
  2981   0016EC  0E00               	movlw	0
  2982   0016EE  6E3C               	movwf	(_I2C1_Status+14)^0,c
  2983   0016F0  0E00               	movlw	0
  2984   0016F2  6E3D               	movwf	(_I2C1_Status+15)^0,c
  2985   0016F4                     
  2986                           ;mcc_generated_files/i2c1_master.c: 223:         I2C1_Status.callbackTable[I2C1_ADDR_NAC
      +                          K]=I2C1_CallbackReturnStop;
  2987   0016F4  0E2A               	movlw	low _I2C1_CallbackReturnStop
  2988   0016F6  6E32               	movwf	(_I2C1_Status+4)^0,c
  2989   0016F8  0E21               	movlw	high _I2C1_CallbackReturnStop
  2990   0016FA  6E33               	movwf	(_I2C1_Status+5)^0,c
  2991   0016FC                     
  2992                           ;mcc_generated_files/i2c1_master.c: 224:         I2C1_Status.callbackPayload[I2C1_ADDR_N
      +                          ACK] = ((void*)0);
  2993   0016FC  0E00               	movlw	0
  2994   0016FE  6E3E               	movwf	(_I2C1_Status+16)^0,c
  2995   001700  0E00               	movlw	0
  2996   001702  6E3F               	movwf	(_I2C1_Status+17)^0,c
  2997   001704                     
  2998                           ;mcc_generated_files/i2c1_master.c: 225:         I2C1_Status.callbackTable[I2C1_DATA_NAC
      +                          K]=I2C1_CallbackReturnStop;
  2999   001704  0E2A               	movlw	low _I2C1_CallbackReturnStop
  3000   001706  6E34               	movwf	(_I2C1_Status+6)^0,c
  3001   001708  0E21               	movlw	high _I2C1_CallbackReturnStop
  3002   00170A  6E35               	movwf	(_I2C1_Status+7)^0,c
  3003   00170C                     
  3004                           ;mcc_generated_files/i2c1_master.c: 226:         I2C1_Status.callbackPayload[I2C1_DATA_N
      +                          ACK] = ((void*)0);
  3005   00170C  0E00               	movlw	0
  3006   00170E  6E40               	movwf	(_I2C1_Status+18)^0,c
  3007   001710  0E00               	movlw	0
  3008   001712  6E41               	movwf	(_I2C1_Status+19)^0,c
  3009   001714                     
  3010                           ;mcc_generated_files/i2c1_master.c: 227:         I2C1_Status.callbackTable[I2C1_TIMEOUT]
      +                          =I2C1_CallbackReturnReset;
  3011   001714  0E26               	movlw	low _I2C1_CallbackReturnReset
  3012   001716  6E36               	movwf	(_I2C1_Status+8)^0,c
  3013   001718  0E21               	movlw	high _I2C1_CallbackReturnReset
  3014   00171A  6E37               	movwf	(_I2C1_Status+9)^0,c
  3015   00171C                     
  3016                           ;mcc_generated_files/i2c1_master.c: 228:         I2C1_Status.callbackPayload[I2C1_TIMEOU
      +                          T] = ((void*)0);
  3017   00171C  0E00               	movlw	0
  3018   00171E  6E42               	movwf	(_I2C1_Status+20)^0,c
  3019   001720  0E00               	movlw	0
  3020   001722  6E43               	movwf	(_I2C1_Status+21)^0,c
  3021   001724                     
  3022                           ;mcc_generated_files/i2c1_master.c: 230:         I2C1_MasterClearIrq();
  3023   001724  EC6D  F010         	call	_I2C1_MasterClearIrq	;wreg free
  3024   001728                     
  3025                           ;mcc_generated_files/i2c1_master.c: 231:         I2C1_MasterOpen();
  3026   001728  EC7B  F00E         	call	_I2C1_MasterOpen	;wreg free
  3027   00172C                     
  3028                           ;mcc_generated_files/i2c1_master.c: 232:         returnValue = I2C1_NOERR;
  3029   00172C  0E00               	movlw	0
  3030   00172E  6E02               	movwf	I2C1_Open@returnValue^0,c
  3031   001730                     l3236:
  3032                           
  3033                           ;mcc_generated_files/i2c1_master.c: 234:     return returnValue;
  3034   001730  5002               	movf	I2C1_Open@returnValue^0,w,c
  3035   001732  0012               	return		;funcret
  3036   001734                     __end_of_I2C1_Open:
  3037                           	callstack 0
  3038                           
  3039 ;; *************** function _I2C1_MasterOpen *****************
  3040 ;; Defined at:
  3041 ;;		line 632 in file "mcc_generated_files/i2c1_master.c"
  3042 ;; Parameters:    Size  Location     Type
  3043 ;;		None
  3044 ;; Auto vars:     Size  Location     Type
  3045 ;;		None
  3046 ;; Return value:  Size  Location     Type
  3047 ;;                  1    wreg      _Bool 
  3048 ;; Registers used:
  3049 ;;		wreg, status,2
  3050 ;; Tracked objects:
  3051 ;;		On entry : 0/0
  3052 ;;		On exit  : 0/0
  3053 ;;		Unchanged: 0/0
  3054 ;; Data sizes:     COMRAM   BANK0   BANK1   BANK2   BANK3   BANK4   BANK5   BANK6   BANK7   BANK8   BANK9  BANK10  BANK1
      +1  BANK12  BANK13  BANK14  BANK15
  3055 ;;      Params:         0       0       0       0       0       0       0       0       0       0       0       0       
      +0       0       0       0       0
  3056 ;;      Locals:         0       0       0       0       0       0       0       0       0       0       0       0       
      +0       0       0       0       0
  3057 ;;      Temps:          0       0       0       0       0       0       0       0       0       0       0       0       
      +0       0       0       0       0
  3058 ;;      Totals:         0       0       0       0       0       0       0       0       0       0       0       0       
      +0       0       0       0       0
  3059 ;;Total ram usage:        0 bytes
  3060 ;; Hardware stack levels used: 1
  3061 ;; This function calls:
  3062 ;;		Nothing
  3063 ;; This function is called by:
  3064 ;;		_I2C1_Open
  3065 ;; This function uses a non-reentrant model
  3066 ;;
  3067                           
  3068                           	psect	text24
  3069   001CF6                     __ptext24:
  3070                           	callstack 0
  3071   001CF6                     _I2C1_MasterOpen:
  3072                           	callstack 27
  3073   001CF6                     
  3074                           ;mcc_generated_files/i2c1_master.c: 634:     if(!I2C1CON0bits.EN)
  3075   001CF6  013D               	movlb	61	; () banked
  3076   001CF8  BF73               	btfsc	115,7,b	;volatile
  3077   001CFA  EF81  F00E         	goto	u1191
  3078   001CFE  EF83  F00E         	goto	u1190
  3079   001D02                     u1191:
  3080   001D02  EF91  F00E         	goto	l558
  3081   001D06                     u1190:
  3082   001D06                     
  3083                           ; BSR set to: 61
  3084                           ;mcc_generated_files/i2c1_master.c: 635:     {;mcc_generated_files/i2c1_master.c: 637:  
      +                                 I2C1PIR = 0x00;
  3085   001D06  0E00               	movlw	0
  3086   001D08  6F79               	movwf	121,b	;volatile
  3087                           
  3088                           ;mcc_generated_files/i2c1_master.c: 639:         I2C1PIE = 0x00;
  3089   001D0A  0E00               	movlw	0
  3090   001D0C  6F7A               	movwf	122,b	;volatile
  3091                           
  3092                           ;mcc_generated_files/i2c1_master.c: 641:         I2C1ERR = 0x00;
  3093   001D0E  0E00               	movlw	0
  3094   001D10  6F76               	movwf	118,b	;volatile
  3095   001D12                     
  3096                           ; BSR set to: 61
  3097                           ;mcc_generated_files/i2c1_master.c: 643:         I2C1CNT = 0xFF;
  3098   001D12  696C               	setf	108,b	;volatile
  3099                           
  3100                           ;mcc_generated_files/i2c1_master.c: 645:         RB1I2C = 0x51;
  3101   001D14  0E51               	movlw	81
  3102   001D16  013A               	movlb	58	; () banked
  3103   001D18  6F5A               	movwf	90,b	;volatile
  3104                           
  3105                           ;mcc_generated_files/i2c1_master.c: 647:         RB2I2C = 0x51;
  3106   001D1A  0E51               	movlw	81
  3107   001D1C  6F5B               	movwf	91,b	;volatile
  3108   001D1E                     
  3109                           ; BSR set to: 58
  3110                           ;mcc_generated_files/i2c1_master.c: 649:         I2C1CON0bits.EN = 1;
  3111   001D1E  013D               	movlb	61	; () banked
  3112   001D20  8F73               	bsf	115,7,b	;volatile
  3113   001D22                     l558:
  3114                           
  3115                           ; BSR set to: 61
  3116   001D22  0012               	return		;funcret
  3117   001D24                     __end_of_I2C1_MasterOpen:
  3118                           	callstack 0
  3119                           
  3120 ;; *************** function _I2C1_MasterRead *****************
  3121 ;; Defined at:
  3122 ;;		line 276 in file "mcc_generated_files/i2c1_master.c"
  3123 ;; Parameters:    Size  Location     Type
  3124 ;;		None
  3125 ;; Auto vars:     Size  Location     Type
  3126 ;;		None
  3127 ;; Return value:  Size  Location     Type
  3128 ;;                  1    wreg      enum E358
  3129 ;; Registers used:
  3130 ;;		wreg, fsr2l, fsr2h, status,2, status,0, pcl, pclath, pclatu, tosl, tblptrl, tblptrh, tblptru, prodl, prodh, cstack
  3131 ;; Tracked objects:
  3132 ;;		On entry : 0/0
  3133 ;;		On exit  : 0/0
  3134 ;;		Unchanged: 0/0
  3135 ;; Data sizes:     COMRAM   BANK0   BANK1   BANK2   BANK3   BANK4   BANK5   BANK6   BANK7   BANK8   BANK9  BANK10  BANK1
      +1  BANK12  BANK13  BANK14  BANK15
  3136 ;;      Params:         0       0       0       0       0       0       0       0       0       0       0       0       
      +0       0       0       0       0
  3137 ;;      Locals:         0       0       0       0       0       0       0       0       0       0       0       0       
      +0       0       0       0       0
  3138 ;;      Temps:          0       0       0       0       0       0       0       0       0       0       0       0       
      +0       0       0       0       0
  3139 ;;      Totals:         0       0       0       0       0       0       0       0       0       0       0       0       
      +0       0       0       0       0
  3140 ;;Total ram usage:        0 bytes
  3141 ;; Hardware stack levels used: 1
  3142 ;; Hardware stack levels required when called: 10
  3143 ;; This function calls:
  3144 ;;		_I2C1_MasterOperation
  3145 ;; This function is called by:
  3146 ;;		_I2C1_ReadNBytes
  3147 ;; This function uses a non-reentrant model
  3148 ;;
  3149                           
  3150                           	psect	text25
  3151   0020BA                     __ptext25:
  3152                           	callstack 0
  3153   0020BA                     _I2C1_MasterRead:
  3154                           	callstack 18
  3155   0020BA                     
  3156                           ;mcc_generated_files/i2c1_master.c: 278:     return I2C1_MasterOperation(1);;	Return val
      +                          ue of _I2C1_MasterRead is never used
  3157   0020BA  0E01               	movlw	1
  3158   0020BC  ECA0  F00D         	call	_I2C1_MasterOperation
  3159   0020C0  0012               	return		;funcret
  3160   0020C2                     __end_of_I2C1_MasterRead:
  3161                           	callstack 0
  3162                           
  3163 ;; *************** function _I2C1_MasterOperation *****************
  3164 ;; Defined at:
  3165 ;;		line 252 in file "mcc_generated_files/i2c1_master.c"
  3166 ;; Parameters:    Size  Location     Type
  3167 ;;  read            1    wreg     _Bool 
  3168 ;; Auto vars:     Size  Location     Type
  3169 ;;  read            1   21[COMRAM] _Bool 
  3170 ;;  returnValue     1   22[COMRAM] enum E358
  3171 ;; Return value:  Size  Location     Type
  3172 ;;                  1    wreg      enum E358
  3173 ;; Registers used:
  3174 ;;		wreg, fsr2l, fsr2h, status,2, status,0, pcl, pclath, pclatu, tosl, tblptrl, tblptrh, tblptru, prodl, prodh, cstack
  3175 ;; Tracked objects:
  3176 ;;		On entry : 0/0
  3177 ;;		On exit  : 0/0
  3178 ;;		Unchanged: 0/0
  3179 ;; Data sizes:     COMRAM   BANK0   BANK1   BANK2   BANK3   BANK4   BANK5   BANK6   BANK7   BANK8   BANK9  BANK10  BANK1
      +1  BANK12  BANK13  BANK14  BANK15
  3180 ;;      Params:         0       0       0       0       0       0       0       0       0       0       0       0       
      +0       0       0       0       0
  3181 ;;      Locals:         2       0       0       0       0       0       0       0       0       0       0       0       
      +0       0       0       0       0
  3182 ;;      Temps:          0       0       0       0       0       0       0       0       0       0       0       0       
      +0       0       0       0       0
  3183 ;;      Totals:         2       0       0       0       0       0       0       0       0       0       0       0       
      +0       0       0       0       0
  3184 ;;Total ram usage:        2 bytes
  3185 ;; Hardware stack levels used: 1
  3186 ;; Hardware stack levels required when called: 9
  3187 ;; This function calls:
  3188 ;;		_I2C1_DO_SEND_ADR_READ
  3189 ;;		_I2C1_DO_SEND_ADR_WRITE
  3190 ;;		_I2C1_MasterSetCounter
  3191 ;;		_I2C1_Poller
  3192 ;; This function is called by:
  3193 ;;		_I2C1_MasterRead
  3194 ;;		_I2C1_MasterWrite
  3195 ;; This function uses a non-reentrant model
  3196 ;;
  3197                           
  3198                           	psect	text26
  3199   001B40                     __ptext26:
  3200                           	callstack 0
  3201   001B40                     _I2C1_MasterOperation:
  3202                           	callstack 18
  3203                           
  3204                           ;incstack = 0
  3205                           ;I2C1_MasterOperation@read stored from wreg
  3206   001B40  6E16               	movwf	I2C1_MasterOperation@read^0,c
  3207   001B42                     
  3208                           ;mcc_generated_files/i2c1_master.c: 252: i2c1_error_t I2C1_MasterOperation(_Bool read);m
      +                          cc_generated_files/i2c1_master.c: 253: {;mcc_generated_files/i2c1_master.c: 254:     i2c
      +                          1_error_t returnValue = I2C1_BUSY;
  3209   001B42  0E01               	movlw	1
  3210   001B44  6E17               	movwf	I2C1_MasterOperation@returnValue^0,c
  3211   001B46                     
  3212                           ;mcc_generated_files/i2c1_master.c: 255:     if(!I2C1_Status.busy)
  3213   001B46  B451               	btfsc	(_I2C1_Status+35)^0,2,c
  3214   001B48  EFA8  F00D         	goto	u1201
  3215   001B4C  EFAA  F00D         	goto	u1200
  3216   001B50                     u1201:
  3217   001B50  EFC4  F00D         	goto	l3174
  3218   001B54                     u1200:
  3219   001B54                     
  3220                           ;mcc_generated_files/i2c1_master.c: 256:     {;mcc_generated_files/i2c1_master.c: 257:  
      +                                 I2C1_Status.busy = 1;
  3221   001B54  8451               	bsf	(_I2C1_Status+35)^0,2,c
  3222   001B56                     
  3223                           ;mcc_generated_files/i2c1_master.c: 258:         returnValue = I2C1_NOERR;
  3224   001B56  0E00               	movlw	0
  3225   001B58  6E17               	movwf	I2C1_MasterOperation@returnValue^0,c
  3226   001B5A                     
  3227                           ;mcc_generated_files/i2c1_master.c: 259:         I2C1_MasterSetCounter((uint8_t) I2C1_St
      +                          atus.data_length);
  3228   001B5A  504D               	movf	(_I2C1_Status+31)^0,w,c
  3229   001B5C  EC4F  F010         	call	_I2C1_MasterSetCounter
  3230   001B60                     
  3231                           ;mcc_generated_files/i2c1_master.c: 261:         if(read)
  3232   001B60  5016               	movf	I2C1_MasterOperation@read^0,w,c
  3233   001B62  B4D8               	btfsc	status,2,c
  3234   001B64  EFB6  F00D         	goto	u1211
  3235   001B68  EFB8  F00D         	goto	u1210
  3236   001B6C                     u1211:
  3237   001B6C  EFBE  F00D         	goto	l3168
  3238   001B70                     u1210:
  3239   001B70                     
  3240                           ;mcc_generated_files/i2c1_master.c: 262:         {;mcc_generated_files/i2c1_master.c: 26
      +                          3:             I2C1_Status.state = I2C1_RX;
  3241   001B70  0E04               	movlw	4
  3242   001B72  6E4F               	movwf	(_I2C1_Status+33)^0,c
  3243   001B74                     
  3244                           ;mcc_generated_files/i2c1_master.c: 264:             I2C1_DO_SEND_ADR_READ();
  3245   001B74  ECEA  F00E         	call	_I2C1_DO_SEND_ADR_READ	;wreg free
  3246                           
  3247                           ;mcc_generated_files/i2c1_master.c: 265:         }
  3248   001B78  EFC2  F00D         	goto	l3172
  3249   001B7C                     l3168:
  3250                           
  3251                           ;mcc_generated_files/i2c1_master.c: 267:         {;mcc_generated_files/i2c1_master.c: 26
      +                          8:             I2C1_Status.state = I2C1_TX;
  3252   001B7C  0E03               	movlw	3
  3253   001B7E  6E4F               	movwf	(_I2C1_Status+33)^0,c
  3254   001B80                     
  3255                           ;mcc_generated_files/i2c1_master.c: 269:             I2C1_DO_SEND_ADR_WRITE();
  3256   001B80  EC06  F010         	call	_I2C1_DO_SEND_ADR_WRITE	;wreg free
  3257   001B84                     l3172:
  3258                           
  3259                           ;mcc_generated_files/i2c1_master.c: 271:         I2C1_Poller();
  3260   001B84  EC7A  F00F         	call	_I2C1_Poller	;wreg free
  3261   001B88                     l3174:
  3262                           
  3263                           ;mcc_generated_files/i2c1_master.c: 273:     return returnValue;
  3264   001B88  5017               	movf	I2C1_MasterOperation@returnValue^0,w,c
  3265   001B8A  0012               	return		;funcret
  3266   001B8C                     __end_of_I2C1_MasterOperation:
  3267                           	callstack 0
  3268                           
  3269 ;; *************** function _I2C1_Poller *****************
  3270 ;; Defined at:
  3271 ;;		line 342 in file "mcc_generated_files/i2c1_master.c"
  3272 ;; Parameters:    Size  Location     Type
  3273 ;;		None
  3274 ;; Auto vars:     Size  Location     Type
  3275 ;;		None
  3276 ;; Return value:  Size  Location     Type
  3277 ;;                  1    wreg      void 
  3278 ;; Registers used:
  3279 ;;		wreg, fsr2l, fsr2h, status,2, status,0, pcl, pclath, pclatu, tosl, tblptrl, tblptrh, tblptru, prodl, prodh, cstack
  3280 ;; Tracked objects:
  3281 ;;		On entry : 0/0
  3282 ;;		On exit  : 0/0
  3283 ;;		Unchanged: 0/0
  3284 ;; Data sizes:     COMRAM   BANK0   BANK1   BANK2   BANK3   BANK4   BANK5   BANK6   BANK7   BANK8   BANK9  BANK10  BANK1
      +1  BANK12  BANK13  BANK14  BANK15
  3285 ;;      Params:         0       0       0       0       0       0       0       0       0       0       0       0       
      +0       0       0       0       0
  3286 ;;      Locals:         0       0       0       0       0       0       0       0       0       0       0       0       
      +0       0       0       0       0
  3287 ;;      Temps:          0       0       0       0       0       0       0       0       0       0       0       0       
      +0       0       0       0       0
  3288 ;;      Totals:         0       0       0       0       0       0       0       0       0       0       0       0       
      +0       0       0       0       0
  3289 ;;Total ram usage:        0 bytes
  3290 ;; Hardware stack levels used: 1
  3291 ;; Hardware stack levels required when called: 8
  3292 ;; This function calls:
  3293 ;;		_I2C1_MasterFsm
  3294 ;;		_I2C1_MasterWaitForEvent
  3295 ;; This function is called by:
  3296 ;;		_I2C1_MasterOperation
  3297 ;; This function uses a non-reentrant model
  3298 ;;
  3299                           
  3300                           	psect	text27
  3301   001EF4                     __ptext27:
  3302                           	callstack 0
  3303   001EF4                     _I2C1_Poller:
  3304                           	callstack 18
  3305   001EF4                     
  3306                           ;mcc_generated_files/i2c1_master.c: 344:     while(I2C1_Status.busy)
  3307   001EF4  EF80  F00F         	goto	l3132
  3308   001EF8                     l3128:
  3309                           
  3310                           ;mcc_generated_files/i2c1_master.c: 345:     {;mcc_generated_files/i2c1_master.c: 346:  
      +                                 I2C1_MasterWaitForEvent();
  3311   001EF8  EC1D  F00D         	call	_I2C1_MasterWaitForEvent	;wreg free
  3312   001EFC                     
  3313                           ;mcc_generated_files/i2c1_master.c: 347:         I2C1_MasterFsm();
  3314   001EFC  EC0F  F00C         	call	_I2C1_MasterFsm	;wreg free
  3315   001F00                     l3132:
  3316                           
  3317                           ;mcc_generated_files/i2c1_master.c: 344:     while(I2C1_Status.busy)
  3318   001F00  B451               	btfsc	(_I2C1_Status+35)^0,2,c
  3319   001F02  EF85  F00F         	goto	u1181
  3320   001F06  EF87  F00F         	goto	u1180
  3321   001F0A                     u1181:
  3322   001F0A  EF7C  F00F         	goto	l3128
  3323   001F0E                     u1180:
  3324   001F0E  0012               	return		;funcret
  3325   001F10                     __end_of_I2C1_Poller:
  3326                           	callstack 0
  3327                           
  3328 ;; *************** function _I2C1_MasterWaitForEvent *****************
  3329 ;; Defined at:
  3330 ;;		line 813 in file "mcc_generated_files/i2c1_master.c"
  3331 ;; Parameters:    Size  Location     Type
  3332 ;;		None
  3333 ;; Auto vars:     Size  Location     Type
  3334 ;;		None
  3335 ;; Return value:  Size  Location     Type
  3336 ;;                  1    wreg      void 
  3337 ;; Registers used:
  3338 ;;		None
  3339 ;; Tracked objects:
  3340 ;;		On entry : 0/0
  3341 ;;		On exit  : 0/0
  3342 ;;		Unchanged: 0/0
  3343 ;; Data sizes:     COMRAM   BANK0   BANK1   BANK2   BANK3   BANK4   BANK5   BANK6   BANK7   BANK8   BANK9  BANK10  BANK1
      +1  BANK12  BANK13  BANK14  BANK15
  3344 ;;      Params:         0       0       0       0       0       0       0       0       0       0       0       0       
      +0       0       0       0       0
  3345 ;;      Locals:         0       0       0       0       0       0       0       0       0       0       0       0       
      +0       0       0       0       0
  3346 ;;      Temps:          0       0       0       0       0       0       0       0       0       0       0       0       
      +0       0       0       0       0
  3347 ;;      Totals:         0       0       0       0       0       0       0       0       0       0       0       0       
      +0       0       0       0       0
  3348 ;;Total ram usage:        0 bytes
  3349 ;; Hardware stack levels used: 1
  3350 ;; This function calls:
  3351 ;;		Nothing
  3352 ;; This function is called by:
  3353 ;;		_I2C1_Poller
  3354 ;; This function uses a non-reentrant model
  3355 ;;
  3356                           
  3357                           	psect	text28
  3358   001A3A                     __ptext28:
  3359                           	callstack 0
  3360   001A3A                     _I2C1_MasterWaitForEvent:
  3361                           	callstack 25
  3362   001A3A                     l638:
  3363                           
  3364                           ;mcc_generated_files/i2c1_master.c: 816:     {;mcc_generated_files/i2c1_master.c: 817:  
      +                                 if(PIR3bits.I2C1TXIF)
  3365   001A3A  0139               	movlb	57	; () banked
  3366   001A3C  A1A3               	btfss	163,0,b	;volatile
  3367   001A3E  EF23  F00D         	goto	u1101
  3368   001A42  EF25  F00D         	goto	u1100
  3369   001A46                     u1101:
  3370   001A46  EF27  F00D         	goto	l639
  3371   001A4A                     u1100:
  3372   001A4A  EF4A  F00D         	goto	l646
  3373   001A4E                     l639:
  3374                           
  3375                           ; BSR set to: 57
  3376                           ;mcc_generated_files/i2c1_master.c: 821:         if(PIR2bits.I2C1RXIF)
  3377   001A4E  AFA2               	btfss	162,7,b	;volatile
  3378   001A50  EF2C  F00D         	goto	u1111
  3379   001A54  EF2E  F00D         	goto	u1110
  3380   001A58                     u1111:
  3381   001A58  EF30  F00D         	goto	l641
  3382   001A5C                     u1110:
  3383   001A5C  EF4A  F00D         	goto	l646
  3384   001A60                     l641:
  3385                           
  3386                           ; BSR set to: 57
  3387                           ;mcc_generated_files/i2c1_master.c: 825:         if(I2C1PIRbits.PCIF)
  3388   001A60  013D               	movlb	61	; () banked
  3389   001A62  A579               	btfss	121,2,b	;volatile
  3390   001A64  EF36  F00D         	goto	u1121
  3391   001A68  EF38  F00D         	goto	u1120
  3392   001A6C                     u1121:
  3393   001A6C  EF3A  F00D         	goto	l642
  3394   001A70                     u1120:
  3395   001A70  EF4A  F00D         	goto	l646
  3396   001A74                     l642:
  3397                           
  3398                           ; BSR set to: 61
  3399                           ;mcc_generated_files/i2c1_master.c: 829:         if(I2C1PIRbits.CNTIF)
  3400   001A74  AF79               	btfss	121,7,b	;volatile
  3401   001A76  EF3F  F00D         	goto	u1131
  3402   001A7A  EF41  F00D         	goto	u1130
  3403   001A7E                     u1131:
  3404   001A7E  EF43  F00D         	goto	l643
  3405   001A82                     u1130:
  3406   001A82  EF4A  F00D         	goto	l646
  3407   001A86                     l643:
  3408                           
  3409                           ; BSR set to: 61
  3410                           ;mcc_generated_files/i2c1_master.c: 833:         if(I2C1ERRbits.NACKIF)
  3411   001A86  A976               	btfss	118,4,b	;volatile
  3412   001A88  EF48  F00D         	goto	u1141
  3413   001A8C  EF4A  F00D         	goto	u1140
  3414   001A90                     u1141:
  3415   001A90  EF1D  F00D         	goto	l638
  3416   001A94                     u1140:
  3417   001A94                     l646:
  3418   001A94  0012               	return		;funcret
  3419   001A96                     __end_of_I2C1_MasterWaitForEvent:
  3420                           	callstack 0
  3421                           
  3422 ;; *************** function _I2C1_MasterFsm *****************
  3423 ;; Defined at:
  3424 ;;		line 351 in file "mcc_generated_files/i2c1_master.c"
  3425 ;; Parameters:    Size  Location     Type
  3426 ;;		None
  3427 ;; Auto vars:     Size  Location     Type
  3428 ;;		None
  3429 ;; Return value:  Size  Location     Type
  3430 ;;                  1    wreg      void 
  3431 ;; Registers used:
  3432 ;;		wreg, fsr2l, fsr2h, status,2, status,0, pcl, pclath, pclatu, tosl, tblptrl, tblptrh, tblptru, prodl, prodh, cstack
  3433 ;; Tracked objects:
  3434 ;;		On entry : 0/0
  3435 ;;		On exit  : 0/0
  3436 ;;		Unchanged: 0/0
  3437 ;; Data sizes:     COMRAM   BANK0   BANK1   BANK2   BANK3   BANK4   BANK5   BANK6   BANK7   BANK8   BANK9  BANK10  BANK1
      +1  BANK12  BANK13  BANK14  BANK15
  3438 ;;      Params:         0       0       0       0       0       0       0       0       0       0       0       0       
      +0       0       0       0       0
  3439 ;;      Locals:         0       0       0       0       0       0       0       0       0       0       0       0       
      +0       0       0       0       0
  3440 ;;      Temps:          3       0       0       0       0       0       0       0       0       0       0       0       
      +0       0       0       0       0
  3441 ;;      Totals:         3       0       0       0       0       0       0       0       0       0       0       0       
      +0       0       0       0       0
  3442 ;;Total ram usage:        3 bytes
  3443 ;; Hardware stack levels used: 1
  3444 ;; Hardware stack levels required when called: 7
  3445 ;; This function calls:
  3446 ;;		_I2C1_ClearInterruptFlags
  3447 ;;		_I2C1_DO_ADDRESS_NACK
  3448 ;;		_I2C1_DO_BUS_COLLISION
  3449 ;;		_I2C1_DO_BUS_ERROR
  3450 ;;		_I2C1_DO_IDLE
  3451 ;;		_I2C1_DO_RESET
  3452 ;;		_I2C1_DO_RX
  3453 ;;		_I2C1_DO_RX_ACK
  3454 ;;		_I2C1_DO_RX_EMPTY
  3455 ;;		_I2C1_DO_RX_NACK_RESTART
  3456 ;;		_I2C1_DO_RX_NACK_STOP
  3457 ;;		_I2C1_DO_SEND_ADR_READ
  3458 ;;		_I2C1_DO_SEND_ADR_WRITE
  3459 ;;		_I2C1_DO_SEND_RESTART
  3460 ;;		_I2C1_DO_SEND_RESTART_READ
  3461 ;;		_I2C1_DO_SEND_RESTART_WRITE
  3462 ;;		_I2C1_DO_SEND_STOP
  3463 ;;		_I2C1_DO_TX
  3464 ;;		_I2C1_DO_TX_ACK
  3465 ;;		_I2C1_DO_TX_EMPTY
  3466 ;;		_I2C1_MasterIsNack
  3467 ;; This function is called by:
  3468 ;;		_I2C1_Poller
  3469 ;; This function uses a non-reentrant model
  3470 ;;
  3471                           
  3472                           	psect	text29
  3473   00181E                     __ptext29:
  3474                           	callstack 0
  3475   00181E                     _I2C1_MasterFsm:
  3476                           	callstack 18
  3477   00181E                     
  3478                           ;mcc_generated_files/i2c1_master.c: 353:     I2C1_ClearInterruptFlags();
  3479   00181E  EC77  F00D         	call	_I2C1_ClearInterruptFlags	;wreg free
  3480   001822                     
  3481                           ;mcc_generated_files/i2c1_master.c: 355:     if(I2C1_Status.addressNackCheck && I2C1_Mas
      +                          terIsNack())
  3482   001822  5051               	movf	(_I2C1_Status+35)^0,w,c
  3483   001824  0B03               	andlw	3
  3484   001826  0900               	iorlw	0
  3485   001828  B4D8               	btfsc	status,2,c
  3486   00182A  EF19  F00C         	goto	u1151
  3487   00182E  EF1B  F00C         	goto	u1150
  3488   001832                     u1151:
  3489   001832  EF27  F00C         	goto	l3122
  3490   001836                     u1150:
  3491   001836  ECCF  F00F         	call	_I2C1_MasterIsNack	;wreg free
  3492   00183A  0900               	iorlw	0
  3493   00183C  B4D8               	btfsc	status,2,c
  3494   00183E  EF23  F00C         	goto	u1161
  3495   001842  EF25  F00C         	goto	u1160
  3496   001846                     u1161:
  3497   001846  EF27  F00C         	goto	l3122
  3498   00184A                     u1160:
  3499   00184A                     
  3500                           ;mcc_generated_files/i2c1_master.c: 356:     {;mcc_generated_files/i2c1_master.c: 357:  
      +                                 I2C1_Status.state = I2C1_ADDRESS_NACK;
  3501   00184A  0E10               	movlw	16
  3502   00184C  6E4F               	movwf	(_I2C1_Status+33)^0,c
  3503   00184E                     l3122:
  3504                           
  3505                           ;mcc_generated_files/i2c1_master.c: 359:     I2C1_Status.state = i2c1_fsmStateTable[I2C1
      +                          _Status.state]();
  3506   00184E  504F               	movf	(_I2C1_Status+33)^0,w,c
  3507   001850  0D02               	mullw	2
  3508   001852  50F3               	movf	243,w,c
  3509   001854  0F01               	addlw	low _i2c1_fsmStateTable
  3510   001856  6E13               	movwf	??_I2C1_MasterFsm^0,c
  3511   001858  0060  F04F  FFF6   	movff	??_I2C1_MasterFsm,tblptrl
  3512   00185E                     	if	1	;There is more than 1 active tblptr byte
  3513   00185E  0E10               	movlw	high __smallconst
  3514   001860  6EF7               	movwf	tblptrh,c
  3515   001862                     	endif
  3516   001862                     	if	1	;Program memory is < 0x10000, tblptru is always zero
  3517   001862  6AF8               	clrf	tblptru,c
  3518   001864                     	endif
  3519   001864                     	if	0	;tblptru may be non-zero
  3520   001864                     	endif
  3521   001864  0009               	tblrd		*+
  3522   001866  006F FFD4  F014    	movff	tablat,??_I2C1_MasterFsm+1
  3523   00186C  0009               	tblrd		*+
  3524   00186E  006F FFD4  F015    	movff	tablat,??_I2C1_MasterFsm+2
  3525   001874  D802               	call	u1178
  3526   001876  EF46  F00C         	goto	u1179
  3527   00187A                     u1178:
  3528   00187A  0005               	push	
  3529   00187C  6EFA               	movwf	pclath,c
  3530   00187E  5014               	movf	(??_I2C1_MasterFsm+1)^0,w,c
  3531   001880  6EFD               	movwf	tosl,c
  3532   001882  5015               	movf	(??_I2C1_MasterFsm+2)^0,w,c
  3533   001884  6EFE               	movwf	tosh,c
  3534   001886  6AFF               	clrf	tosu,c
  3535   001888  50FA               	movf	pclath,w,c
  3536   00188A  0012               	return		;indir
  3537   00188C                     u1179:
  3538   00188C  6E4F               	movwf	(_I2C1_Status+33)^0,c
  3539   00188E  0012               	return		;funcret
  3540   001890                     __end_of_I2C1_MasterFsm:
  3541                           	callstack 0
  3542                           
  3543 ;; *************** function _I2C1_DO_BUS_ERROR *****************
  3544 ;; Defined at:
  3545 ;;		line 595 in file "mcc_generated_files/i2c1_master.c"
  3546 ;; Parameters:    Size  Location     Type
  3547 ;;		None
  3548 ;; Auto vars:     Size  Location     Type
  3549 ;;		None
  3550 ;; Return value:  Size  Location     Type
  3551 ;;                  1    wreg      enum E16630
  3552 ;; Registers used:
  3553 ;;		wreg, status,2, cstack
  3554 ;; Tracked objects:
  3555 ;;		On entry : 0/0
  3556 ;;		On exit  : 0/0
  3557 ;;		Unchanged: 0/0
  3558 ;; Data sizes:     COMRAM   BANK0   BANK1   BANK2   BANK3   BANK4   BANK5   BANK6   BANK7   BANK8   BANK9  BANK10  BANK1
      +1  BANK12  BANK13  BANK14  BANK15
  3559 ;;      Params:         0       0       0       0       0       0       0       0       0       0       0       0       
      +0       0       0       0       0
  3560 ;;      Locals:         0       0       0       0       0       0       0       0       0       0       0       0       
      +0       0       0       0       0
  3561 ;;      Temps:          0       0       0       0       0       0       0       0       0       0       0       0       
      +0       0       0       0       0
  3562 ;;      Totals:         0       0       0       0       0       0       0       0       0       0       0       0       
      +0       0       0       0       0
  3563 ;;Total ram usage:        0 bytes
  3564 ;; Hardware stack levels used: 1
  3565 ;; Hardware stack levels required when called: 1
  3566 ;; This function calls:
  3567 ;;		_I2C1_MasterResetBus
  3568 ;; This function is called by:
  3569 ;;		_I2C1_MasterFsm
  3570 ;; This function uses a non-reentrant model
  3571 ;;
  3572                           
  3573                           	psect	text30
  3574   002020                     __ptext30:
  3575                           	callstack 0
  3576   002020                     _I2C1_DO_BUS_ERROR:
  3577                           	callstack 23
  3578   002020                     
  3579                           ;mcc_generated_files/i2c1_master.c: 597:     I2C1_MasterResetBus();
  3580   002020  EC54  F010         	call	_I2C1_MasterResetBus	;wreg free
  3581   002024                     
  3582                           ;mcc_generated_files/i2c1_master.c: 598:     I2C1_Status.busy = 0;
  3583   002024  9451               	bcf	(_I2C1_Status+35)^0,2,c
  3584   002026                     
  3585                           ;mcc_generated_files/i2c1_master.c: 599:     I2C1_Status.error = I2C1_FAIL;
  3586   002026  0E02               	movlw	2
  3587   002028  6E50               	movwf	(_I2C1_Status+34)^0,c
  3588   00202A                     
  3589                           ;mcc_generated_files/i2c1_master.c: 600:     return I2C1_RESET;
  3590   00202A  0E0F               	movlw	15
  3591   00202C  0012               	return		;funcret
  3592   00202E                     __end_of_I2C1_DO_BUS_ERROR:
  3593                           	callstack 0
  3594                           
  3595 ;; *************** function _I2C1_DO_BUS_COLLISION *****************
  3596 ;; Defined at:
  3597 ;;		line 579 in file "mcc_generated_files/i2c1_master.c"
  3598 ;; Parameters:    Size  Location     Type
  3599 ;;		None
  3600 ;; Auto vars:     Size  Location     Type
  3601 ;;		None
  3602 ;; Return value:  Size  Location     Type
  3603 ;;                  1    wreg      enum E16630
  3604 ;; Registers used:
  3605 ;;		wreg, fsr2l, fsr2h, status,2, status,0, pcl, pclath, pclatu, tosl, prodl, prodh, cstack
  3606 ;; Tracked objects:
  3607 ;;		On entry : 0/0
  3608 ;;		On exit  : 0/0
  3609 ;;		Unchanged: 0/0
  3610 ;; Data sizes:     COMRAM   BANK0   BANK1   BANK2   BANK3   BANK4   BANK5   BANK6   BANK7   BANK8   BANK9  BANK10  BANK1
      +1  BANK12  BANK13  BANK14  BANK15
  3611 ;;      Params:         0       0       0       0       0       0       0       0       0       0       0       0       
      +0       0       0       0       0
  3612 ;;      Locals:         0       0       0       0       0       0       0       0       0       0       0       0       
      +0       0       0       0       0
  3613 ;;      Temps:          2       0       0       0       0       0       0       0       0       0       0       0       
      +0       0       0       0       0
  3614 ;;      Totals:         2       0       0       0       0       0       0       0       0       0       0       0       
      +0       0       0       0       0
  3615 ;;Total ram usage:        2 bytes
  3616 ;; Hardware stack levels used: 1
  3617 ;; Hardware stack levels required when called: 6
  3618 ;; This function calls:
  3619 ;;		NULL
  3620 ;;		_I2C1_CallbackReturnReset
  3621 ;;		_I2C1_CallbackReturnStop
  3622 ;;		_I2C1_DO_RESET
  3623 ;;		_I2C1_DO_SEND_RESTART_READ
  3624 ;;		_I2C1_DO_SEND_RESTART_WRITE
  3625 ;;		_I2C1_MasterClearIrq
  3626 ;;		_rd1RegCompleteHandler
  3627 ;;		_rd2RegCompleteHandler
  3628 ;;		_rdBlkRegCompleteHandler
  3629 ;;		_wr1RegCompleteHandler
  3630 ;;		_wr2RegCompleteHandler
  3631 ;; This function is called by:
  3632 ;;		_I2C1_MasterFsm
  3633 ;; This function uses a non-reentrant model
  3634 ;;
  3635                           
  3636                           	psect	text31
  3637   001890                     __ptext31:
  3638                           	callstack 0
  3639   001890                     _I2C1_DO_BUS_COLLISION:
  3640                           	callstack 18
  3641   001890                     
  3642                           ;mcc_generated_files/i2c1_master.c: 582:     I2C1_MasterClearIrq();
  3643   001890  EC6D  F010         	call	_I2C1_MasterClearIrq	;wreg free
  3644   001894                     
  3645                           ;mcc_generated_files/i2c1_master.c: 584:     I2C1_Status.error = I2C1_FAIL;
  3646   001894  0E02               	movlw	2
  3647   001896  6E50               	movwf	(_I2C1_Status+34)^0,c
  3648                           
  3649                           ;mcc_generated_files/i2c1_master.c: 585:     switch (I2C1_Status.callbackTable[I2C1_WRIT
      +                          E_COLLISION](I2C1_Status.callbackPayload[I2C1_WRITE_COLLISION])) {
  3650   001898  EF5A  F00C         	goto	l3084
  3651   00189C                     l3070:
  3652                           
  3653                           ;mcc_generated_files/i2c1_master.c: 587:         return I2C1_DO_SEND_RESTART_READ();
  3654   00189C  EC25  F010         	call	_I2C1_DO_SEND_RESTART_READ	;wreg free
  3655   0018A0  EF7E  F00C         	goto	l533
  3656   0018A4                     l3074:
  3657                           
  3658                           ;mcc_generated_files/i2c1_master.c: 589:         return I2C1_DO_SEND_RESTART_WRITE();
  3659   0018A4  EC91  F010         	call	_I2C1_DO_SEND_RESTART_WRITE	;wreg free
  3660   0018A8  EF7E  F00C         	goto	l533
  3661   0018AC                     l3078:
  3662                           
  3663                           ;mcc_generated_files/i2c1_master.c: 591:         return I2C1_DO_RESET();
  3664   0018AC  EC17  F010         	call	_I2C1_DO_RESET	;wreg free
  3665   0018B0  EF7E  F00C         	goto	l533
  3666   0018B4                     l3084:
  3667   0018B4  C03C  F00A         	movff	_I2C1_Status+14,I2C1_CallbackReturnReset@funPtr
  3668   0018B8  C03D  F00B         	movff	_I2C1_Status+15,I2C1_CallbackReturnReset@funPtr+1
  3669   0018BC  D802               	call	u1088
  3670   0018BE  EF6A  F00C         	goto	u1089
  3671   0018C2                     u1088:
  3672   0018C2  0005               	push	
  3673   0018C4  6EFA               	movwf	pclath,c
  3674   0018C6  5030               	movf	(_I2C1_Status+2)^0,w,c
  3675   0018C8  6EFD               	movwf	tosl,c
  3676   0018CA  5031               	movf	(_I2C1_Status+3)^0,w,c
  3677   0018CC  6EFE               	movwf	tosh,c
  3678   0018CE  6AFF               	clrf	tosu,c
  3679   0018D0  50FA               	movf	pclath,w,c
  3680   0018D2  0012               	return		;indir
  3681   0018D4                     u1089:
  3682   0018D4  6E0D               	movwf	??_I2C1_DO_BUS_COLLISION^0,c
  3683   0018D6  6A0E               	clrf	(??_I2C1_DO_BUS_COLLISION+1)^0,c
  3684                           
  3685                           ; Switch on 2 bytes has been partitioned into a top level switch of size 1, and 1 sub-sw
      +                          itches
  3686                           ; Switch size 1, requested type "simple"
  3687                           ; Number of cases is 1, Range of values is 0 to 0
  3688                           ; switch strategies available:
  3689                           ; Name         Instructions Cycles
  3690                           ; simple_byte            4     3 (average)
  3691                           ;	Chosen strategy is simple_byte
  3692   0018D8  500E               	movf	(??_I2C1_DO_BUS_COLLISION+1)^0,w,c
  3693   0018DA  0A00               	xorlw	0	; case 0
  3694   0018DC  B4D8               	btfsc	status,2,c
  3695   0018DE  EF73  F00C         	goto	l3714
  3696   0018E2  EF56  F00C         	goto	l3078
  3697   0018E6                     l3714:
  3698                           
  3699                           ; Switch size 1, requested type "simple"
  3700                           ; Number of cases is 2, Range of values is 2 to 3
  3701                           ; switch strategies available:
  3702                           ; Name         Instructions Cycles
  3703                           ; simple_byte            7     4 (average)
  3704                           ;	Chosen strategy is simple_byte
  3705   0018E6  500D               	movf	??_I2C1_DO_BUS_COLLISION^0,w,c
  3706   0018E8  0A02               	xorlw	2	; case 2
  3707   0018EA  B4D8               	btfsc	status,2,c
  3708   0018EC  EF4E  F00C         	goto	l3070
  3709   0018F0  0A01               	xorlw	1	; case 3
  3710   0018F2  B4D8               	btfsc	status,2,c
  3711   0018F4  EF52  F00C         	goto	l3074
  3712   0018F8  EF56  F00C         	goto	l3078
  3713   0018FC                     l533:
  3714   0018FC  0012               	return		;funcret
  3715   0018FE                     __end_of_I2C1_DO_BUS_COLLISION:
  3716                           	callstack 0
  3717                           
  3718 ;; *************** function _I2C1_DO_ADDRESS_NACK *****************
  3719 ;; Defined at:
  3720 ;;		line 564 in file "mcc_generated_files/i2c1_master.c"
  3721 ;; Parameters:    Size  Location     Type
  3722 ;;		None
  3723 ;; Auto vars:     Size  Location     Type
  3724 ;;		None
  3725 ;; Return value:  Size  Location     Type
  3726 ;;                  1    wreg      enum E16630
  3727 ;; Registers used:
  3728 ;;		wreg, fsr2l, fsr2h, status,2, status,0, pcl, pclath, pclatu, tosl, prodl, prodh, cstack
  3729 ;; Tracked objects:
  3730 ;;		On entry : 0/0
  3731 ;;		On exit  : 0/0
  3732 ;;		Unchanged: 0/0
  3733 ;; Data sizes:     COMRAM   BANK0   BANK1   BANK2   BANK3   BANK4   BANK5   BANK6   BANK7   BANK8   BANK9  BANK10  BANK1
      +1  BANK12  BANK13  BANK14  BANK15
  3734 ;;      Params:         0       0       0       0       0       0       0       0       0       0       0       0       
      +0       0       0       0       0
  3735 ;;      Locals:         0       0       0       0       0       0       0       0       0       0       0       0       
      +0       0       0       0       0
  3736 ;;      Temps:          2       0       0       0       0       0       0       0       0       0       0       0       
      +0       0       0       0       0
  3737 ;;      Totals:         2       0       0       0       0       0       0       0       0       0       0       0       
      +0       0       0       0       0
  3738 ;;Total ram usage:        2 bytes
  3739 ;; Hardware stack levels used: 1
  3740 ;; Hardware stack levels required when called: 3
  3741 ;; This function calls:
  3742 ;;		NULL
  3743 ;;		_I2C1_CallbackReturnReset
  3744 ;;		_I2C1_CallbackReturnStop
  3745 ;;		_I2C1_DO_SEND_RESTART
  3746 ;;		_rd1RegCompleteHandler
  3747 ;;		_rd2RegCompleteHandler
  3748 ;;		_rdBlkRegCompleteHandler
  3749 ;;		_wr1RegCompleteHandler
  3750 ;;		_wr2RegCompleteHandler
  3751 ;; This function is called by:
  3752 ;;		_I2C1_MasterFsm
  3753 ;; This function uses a non-reentrant model
  3754 ;;
  3755                           
  3756                           	psect	text32
  3757   0019D4                     __ptext32:
  3758                           	callstack 0
  3759   0019D4                     _I2C1_DO_ADDRESS_NACK:
  3760                           	callstack 21
  3761   0019D4                     
  3762                           ;mcc_generated_files/i2c1_master.c: 566:     I2C1_Status.addressNackCheck = 0;
  3763   0019D4  0EFC               	movlw	-4
  3764   0019D6  1651               	andwf	(_I2C1_Status+35)^0,f,c
  3765                           
  3766                           ;mcc_generated_files/i2c1_master.c: 567:     I2C1_Status.error = I2C1_FAIL;
  3767   0019D8  0E02               	movlw	2
  3768   0019DA  6E50               	movwf	(_I2C1_Status+34)^0,c
  3769   0019DC                     
  3770                           ;mcc_generated_files/i2c1_master.c: 568:     I2C1_Status.busy = 0;
  3771   0019DC  9451               	bcf	(_I2C1_Status+35)^0,2,c
  3772                           
  3773                           ;mcc_generated_files/i2c1_master.c: 569:     switch(I2C1_Status.callbackTable[I2C1_ADDR_
      +                          NACK](I2C1_Status.callbackPayload[I2C1_ADDR_NACK]))
  3774   0019DE  EFF8  F00C         	goto	l3060
  3775   0019E2                     l3050:
  3776                           
  3777                           ;mcc_generated_files/i2c1_master.c: 573:             return I2C1_DO_SEND_RESTART();
  3778   0019E2  EC8F  F010         	call	_I2C1_DO_SEND_RESTART	;wreg free
  3779   0019E6  EF1C  F00D         	goto	l526
  3780   0019EA                     l3054:
  3781                           
  3782                           ;mcc_generated_files/i2c1_master.c: 575:             return I2C1_RESET;
  3783   0019EA  0E0F               	movlw	15
  3784   0019EC  EF1C  F00D         	goto	l526
  3785   0019F0                     l3060:
  3786   0019F0  C03E  F00A         	movff	_I2C1_Status+16,I2C1_CallbackReturnReset@funPtr
  3787   0019F4  C03F  F00B         	movff	_I2C1_Status+17,I2C1_CallbackReturnReset@funPtr+1
  3788   0019F8  D802               	call	u1078
  3789   0019FA  EF08  F00D         	goto	u1079
  3790   0019FE                     u1078:
  3791   0019FE  0005               	push	
  3792   001A00  6EFA               	movwf	pclath,c
  3793   001A02  5032               	movf	(_I2C1_Status+4)^0,w,c
  3794   001A04  6EFD               	movwf	tosl,c
  3795   001A06  5033               	movf	(_I2C1_Status+5)^0,w,c
  3796   001A08  6EFE               	movwf	tosh,c
  3797   001A0A  6AFF               	clrf	tosu,c
  3798   001A0C  50FA               	movf	pclath,w,c
  3799   001A0E  0012               	return		;indir
  3800   001A10                     u1079:
  3801   001A10  6E0D               	movwf	??_I2C1_DO_ADDRESS_NACK^0,c
  3802   001A12  6A0E               	clrf	(??_I2C1_DO_ADDRESS_NACK+1)^0,c
  3803                           
  3804                           ; Switch on 2 bytes has been partitioned into a top level switch of size 1, and 1 sub-sw
      +                          itches
  3805                           ; Switch size 1, requested type "simple"
  3806                           ; Number of cases is 1, Range of values is 0 to 0
  3807                           ; switch strategies available:
  3808                           ; Name         Instructions Cycles
  3809                           ; simple_byte            4     3 (average)
  3810                           ;	Chosen strategy is simple_byte
  3811   001A14  500E               	movf	(??_I2C1_DO_ADDRESS_NACK+1)^0,w,c
  3812   001A16  0A00               	xorlw	0	; case 0
  3813   001A18  B4D8               	btfsc	status,2,c
  3814   001A1A  EF11  F00D         	goto	l3716
  3815   001A1E  EFF5  F00C         	goto	l3054
  3816   001A22                     l3716:
  3817                           
  3818                           ; Switch size 1, requested type "simple"
  3819                           ; Number of cases is 2, Range of values is 2 to 3
  3820                           ; switch strategies available:
  3821                           ; Name         Instructions Cycles
  3822                           ; simple_byte            7     4 (average)
  3823                           ;	Chosen strategy is simple_byte
  3824   001A22  500D               	movf	??_I2C1_DO_ADDRESS_NACK^0,w,c
  3825   001A24  0A02               	xorlw	2	; case 2
  3826   001A26  B4D8               	btfsc	status,2,c
  3827   001A28  EFF1  F00C         	goto	l3050
  3828   001A2C  0A01               	xorlw	1	; case 3
  3829   001A2E  B4D8               	btfsc	status,2,c
  3830   001A30  EFF1  F00C         	goto	l3050
  3831   001A34  EFF5  F00C         	goto	l3054
  3832   001A38                     l526:
  3833   001A38  0012               	return		;funcret
  3834   001A3A                     __end_of_I2C1_DO_ADDRESS_NACK:
  3835                           	callstack 0
  3836                           
  3837 ;; *************** function _I2C1_DO_RESET *****************
  3838 ;; Defined at:
  3839 ;;		line 557 in file "mcc_generated_files/i2c1_master.c"
  3840 ;; Parameters:    Size  Location     Type
  3841 ;;		None
  3842 ;; Auto vars:     Size  Location     Type
  3843 ;;		None
  3844 ;; Return value:  Size  Location     Type
  3845 ;;                  1    wreg      enum E16630
  3846 ;; Registers used:
  3847 ;;		wreg, status,2, cstack
  3848 ;; Tracked objects:
  3849 ;;		On entry : 0/0
  3850 ;;		On exit  : 0/0
  3851 ;;		Unchanged: 0/0
  3852 ;; Data sizes:     COMRAM   BANK0   BANK1   BANK2   BANK3   BANK4   BANK5   BANK6   BANK7   BANK8   BANK9  BANK10  BANK1
      +1  BANK12  BANK13  BANK14  BANK15
  3853 ;;      Params:         0       0       0       0       0       0       0       0       0       0       0       0       
      +0       0       0       0       0
  3854 ;;      Locals:         0       0       0       0       0       0       0       0       0       0       0       0       
      +0       0       0       0       0
  3855 ;;      Temps:          0       0       0       0       0       0       0       0       0       0       0       0       
      +0       0       0       0       0
  3856 ;;      Totals:         0       0       0       0       0       0       0       0       0       0       0       0       
      +0       0       0       0       0
  3857 ;;Total ram usage:        0 bytes
  3858 ;; Hardware stack levels used: 1
  3859 ;; Hardware stack levels required when called: 1
  3860 ;; This function calls:
  3861 ;;		_I2C1_MasterResetBus
  3862 ;; This function is called by:
  3863 ;;		_I2C1_DO_BUS_COLLISION
  3864 ;;		_I2C1_MasterFsm
  3865 ;; This function uses a non-reentrant model
  3866 ;;
  3867                           
  3868                           	psect	text33
  3869   00202E                     __ptext33:
  3870                           	callstack 0
  3871   00202E                     _I2C1_DO_RESET:
  3872                           	callstack 23
  3873   00202E                     
  3874                           ;mcc_generated_files/i2c1_master.c: 559:     I2C1_MasterResetBus();
  3875   00202E  EC54  F010         	call	_I2C1_MasterResetBus	;wreg free
  3876   002032                     
  3877                           ;mcc_generated_files/i2c1_master.c: 560:     I2C1_Status.busy = 0;
  3878   002032  9451               	bcf	(_I2C1_Status+35)^0,2,c
  3879   002034                     
  3880                           ;mcc_generated_files/i2c1_master.c: 561:     I2C1_Status.error = I2C1_NOERR;
  3881   002034  0E00               	movlw	0
  3882   002036  6E50               	movwf	(_I2C1_Status+34)^0,c
  3883   002038                     
  3884                           ;mcc_generated_files/i2c1_master.c: 562:     return I2C1_RESET;
  3885   002038  0E0F               	movlw	15
  3886   00203A  0012               	return		;funcret
  3887   00203C                     __end_of_I2C1_DO_RESET:
  3888                           	callstack 0
  3889                           
  3890 ;; *************** function _I2C1_DO_RX_NACK_RESTART *****************
  3891 ;; Defined at:
  3892 ;;		line 551 in file "mcc_generated_files/i2c1_master.c"
  3893 ;; Parameters:    Size  Location     Type
  3894 ;;		None
  3895 ;; Auto vars:     Size  Location     Type
  3896 ;;		None
  3897 ;; Return value:  Size  Location     Type
  3898 ;;                  1    wreg      enum E16630
  3899 ;; Registers used:
  3900 ;;		wreg, cstack
  3901 ;; Tracked objects:
  3902 ;;		On entry : 0/0
  3903 ;;		On exit  : 0/0
  3904 ;;		Unchanged: 0/0
  3905 ;; Data sizes:     COMRAM   BANK0   BANK1   BANK2   BANK3   BANK4   BANK5   BANK6   BANK7   BANK8   BANK9  BANK10  BANK1
      +1  BANK12  BANK13  BANK14  BANK15
  3906 ;;      Params:         0       0       0       0       0       0       0       0       0       0       0       0       
      +0       0       0       0       0
  3907 ;;      Locals:         0       0       0       0       0       0       0       0       0       0       0       0       
      +0       0       0       0       0
  3908 ;;      Temps:          0       0       0       0       0       0       0       0       0       0       0       0       
      +0       0       0       0       0
  3909 ;;      Totals:         0       0       0       0       0       0       0       0       0       0       0       0       
      +0       0       0       0       0
  3910 ;;Total ram usage:        0 bytes
  3911 ;; Hardware stack levels used: 1
  3912 ;; Hardware stack levels required when called: 1
  3913 ;; This function calls:
  3914 ;;		_I2C1_MasterSendNack
  3915 ;; This function is called by:
  3916 ;;		_I2C1_MasterFsm
  3917 ;; This function uses a non-reentrant model
  3918 ;;
  3919                           
  3920                           	psect	text34
  3921   0020C2                     __ptext34:
  3922                           	callstack 0
  3923   0020C2                     _I2C1_DO_RX_NACK_RESTART:
  3924                           	callstack 23
  3925   0020C2                     
  3926                           ;mcc_generated_files/i2c1_master.c: 553:     I2C1_MasterSendNack();
  3927   0020C2  EC77  F010         	call	_I2C1_MasterSendNack	;wreg free
  3928   0020C6                     
  3929                           ;mcc_generated_files/i2c1_master.c: 554:     return I2C1_SEND_RESTART;
  3930   0020C6  0E09               	movlw	9
  3931   0020C8  0012               	return		;funcret
  3932   0020CA                     __end_of_I2C1_DO_RX_NACK_RESTART:
  3933                           	callstack 0
  3934                           
  3935 ;; *************** function _I2C1_DO_RX_NACK_STOP *****************
  3936 ;; Defined at:
  3937 ;;		line 544 in file "mcc_generated_files/i2c1_master.c"
  3938 ;; Parameters:    Size  Location     Type
  3939 ;;		None
  3940 ;; Auto vars:     Size  Location     Type
  3941 ;;		None
  3942 ;; Return value:  Size  Location     Type
  3943 ;;                  1    wreg      enum E16630
  3944 ;; Registers used:
  3945 ;;		wreg, status,2, cstack
  3946 ;; Tracked objects:
  3947 ;;		On entry : 0/0
  3948 ;;		On exit  : 0/0
  3949 ;;		Unchanged: 0/0
  3950 ;; Data sizes:     COMRAM   BANK0   BANK1   BANK2   BANK3   BANK4   BANK5   BANK6   BANK7   BANK8   BANK9  BANK10  BANK1
      +1  BANK12  BANK13  BANK14  BANK15
  3951 ;;      Params:         0       0       0       0       0       0       0       0       0       0       0       0       
      +0       0       0       0       0
  3952 ;;      Locals:         0       0       0       0       0       0       0       0       0       0       0       0       
      +0       0       0       0       0
  3953 ;;      Temps:          0       0       0       0       0       0       0       0       0       0       0       0       
      +0       0       0       0       0
  3954 ;;      Totals:         0       0       0       0       0       0       0       0       0       0       0       0       
      +0       0       0       0       0
  3955 ;;Total ram usage:        0 bytes
  3956 ;; Hardware stack levels used: 1
  3957 ;; Hardware stack levels required when called: 1
  3958 ;; This function calls:
  3959 ;;		_I2C1_DO_IDLE
  3960 ;;		_I2C1_MasterSendNack
  3961 ;;		_I2C1_MasterStop
  3962 ;; This function is called by:
  3963 ;;		_I2C1_MasterFsm
  3964 ;; This function uses a non-reentrant model
  3965 ;;
  3966                           
  3967                           	psect	text35
  3968   00203C                     __ptext35:
  3969                           	callstack 0
  3970   00203C                     _I2C1_DO_RX_NACK_STOP:
  3971                           	callstack 23
  3972   00203C                     
  3973                           ;mcc_generated_files/i2c1_master.c: 546:     I2C1_MasterSendNack();
  3974   00203C  EC77  F010         	call	_I2C1_MasterSendNack	;wreg free
  3975                           
  3976                           ;mcc_generated_files/i2c1_master.c: 547:     I2C1_MasterStop();
  3977   002040  EC74  F010         	call	_I2C1_MasterStop	;wreg free
  3978   002044                     
  3979                           ;mcc_generated_files/i2c1_master.c: 548:     return I2C1_DO_IDLE();
  3980   002044  EC45  F010         	call	_I2C1_DO_IDLE	;wreg free
  3981   002048  0012               	return		;funcret
  3982   00204A                     __end_of_I2C1_DO_RX_NACK_STOP:
  3983                           	callstack 0
  3984                           
  3985 ;; *************** function _I2C1_DO_RX_ACK *****************
  3986 ;; Defined at:
  3987 ;;		line 532 in file "mcc_generated_files/i2c1_master.c"
  3988 ;; Parameters:    Size  Location     Type
  3989 ;;		None
  3990 ;; Auto vars:     Size  Location     Type
  3991 ;;		None
  3992 ;; Return value:  Size  Location     Type
  3993 ;;                  1    wreg      enum E16630
  3994 ;; Registers used:
  3995 ;;		wreg, cstack
  3996 ;; Tracked objects:
  3997 ;;		On entry : 0/0
  3998 ;;		On exit  : 0/0
  3999 ;;		Unchanged: 0/0
  4000 ;; Data sizes:     COMRAM   BANK0   BANK1   BANK2   BANK3   BANK4   BANK5   BANK6   BANK7   BANK8   BANK9  BANK10  BANK1
      +1  BANK12  BANK13  BANK14  BANK15
  4001 ;;      Params:         0       0       0       0       0       0       0       0       0       0       0       0       
      +0       0       0       0       0
  4002 ;;      Locals:         0       0       0       0       0       0       0       0       0       0       0       0       
      +0       0       0       0       0
  4003 ;;      Temps:          0       0       0       0       0       0       0       0       0       0       0       0       
      +0       0       0       0       0
  4004 ;;      Totals:         0       0       0       0       0       0       0       0       0       0       0       0       
      +0       0       0       0       0
  4005 ;;Total ram usage:        0 bytes
  4006 ;; Hardware stack levels used: 1
  4007 ;; Hardware stack levels required when called: 1
  4008 ;; This function calls:
  4009 ;;		_I2C1_MasterSendAck
  4010 ;; This function is called by:
  4011 ;;		_I2C1_MasterFsm
  4012 ;; This function uses a non-reentrant model
  4013 ;;
  4014                           
  4015                           	psect	text36
  4016   0020CA                     __ptext36:
  4017                           	callstack 0
  4018   0020CA                     _I2C1_DO_RX_ACK:
  4019                           	callstack 23
  4020   0020CA                     
  4021                           ;mcc_generated_files/i2c1_master.c: 534:     I2C1_MasterSendAck();
  4022   0020CA  EC7A  F010         	call	_I2C1_MasterSendAck	;wreg free
  4023   0020CE                     
  4024                           ;mcc_generated_files/i2c1_master.c: 535:     return I2C1_RX;
  4025   0020CE  0E04               	movlw	4
  4026   0020D0  0012               	return		;funcret
  4027   0020D2                     __end_of_I2C1_DO_RX_ACK:
  4028                           	callstack 0
  4029                           
  4030 ;; *************** function _I2C1_DO_SEND_STOP *****************
  4031 ;; Defined at:
  4032 ;;		line 521 in file "mcc_generated_files/i2c1_master.c"
  4033 ;; Parameters:    Size  Location     Type
  4034 ;;		None
  4035 ;; Auto vars:     Size  Location     Type
  4036 ;;		None
  4037 ;; Return value:  Size  Location     Type
  4038 ;;                  1    wreg      enum E16630
  4039 ;; Registers used:
  4040 ;;		wreg, status,2, cstack
  4041 ;; Tracked objects:
  4042 ;;		On entry : 0/0
  4043 ;;		On exit  : 0/0
  4044 ;;		Unchanged: 0/0
  4045 ;; Data sizes:     COMRAM   BANK0   BANK1   BANK2   BANK3   BANK4   BANK5   BANK6   BANK7   BANK8   BANK9  BANK10  BANK1
      +1  BANK12  BANK13  BANK14  BANK15
  4046 ;;      Params:         0       0       0       0       0       0       0       0       0       0       0       0       
      +0       0       0       0       0
  4047 ;;      Locals:         0       0       0       0       0       0       0       0       0       0       0       0       
      +0       0       0       0       0
  4048 ;;      Temps:          0       0       0       0       0       0       0       0       0       0       0       0       
      +0       0       0       0       0
  4049 ;;      Totals:         0       0       0       0       0       0       0       0       0       0       0       0       
      +0       0       0       0       0
  4050 ;;Total ram usage:        0 bytes
  4051 ;; Hardware stack levels used: 1
  4052 ;; Hardware stack levels required when called: 1
  4053 ;; This function calls:
  4054 ;;		_I2C1_MasterGetCounter
  4055 ;;		_I2C1_MasterSendTxData
  4056 ;;		_I2C1_MasterSetCounter
  4057 ;;		_I2C1_MasterStop
  4058 ;; This function is called by:
  4059 ;;		_I2C1_MasterFsm
  4060 ;; This function uses a non-reentrant model
  4061 ;;
  4062                           
  4063                           	psect	text37
  4064   001E28                     __ptext37:
  4065                           	callstack 0
  4066   001E28                     _I2C1_DO_SEND_STOP:
  4067                           	callstack 23
  4068   001E28                     
  4069                           ;mcc_generated_files/i2c1_master.c: 523:     I2C1_MasterStop();
  4070   001E28  EC74  F010         	call	_I2C1_MasterStop	;wreg free
  4071   001E2C                     
  4072                           ;mcc_generated_files/i2c1_master.c: 524:     if(I2C1_MasterGetCounter())
  4073   001E2C  EC71  F010         	call	_I2C1_MasterGetCounter	;wreg free
  4074   001E30  0900               	iorlw	0
  4075   001E32  B4D8               	btfsc	status,2,c
  4076   001E34  EF1E  F00F         	goto	u1061
  4077   001E38  EF20  F00F         	goto	u1060
  4078   001E3C                     u1061:
  4079   001E3C  EF26  F00F         	goto	l3018
  4080   001E40                     u1060:
  4081   001E40                     
  4082                           ;mcc_generated_files/i2c1_master.c: 525:     {;mcc_generated_files/i2c1_master.c: 526:  
      +                                 I2C1_MasterSetCounter(0);
  4083   001E40  0E00               	movlw	0
  4084   001E42  EC4F  F010         	call	_I2C1_MasterSetCounter
  4085                           
  4086                           ;mcc_generated_files/i2c1_master.c: 527:         I2C1_MasterSendTxData(0);
  4087   001E46  0E00               	movlw	0
  4088   001E48  EC4A  F010         	call	_I2C1_MasterSendTxData
  4089   001E4C                     l3018:
  4090                           
  4091                           ;mcc_generated_files/i2c1_master.c: 529:     return I2C1_IDLE;
  4092   001E4C  0E00               	movlw	0
  4093   001E4E  0012               	return		;funcret
  4094   001E50                     __end_of_I2C1_DO_SEND_STOP:
  4095                           	callstack 0
  4096                           
  4097 ;; *************** function _I2C1_DO_SEND_RESTART *****************
  4098 ;; Defined at:
  4099 ;;		line 516 in file "mcc_generated_files/i2c1_master.c"
  4100 ;; Parameters:    Size  Location     Type
  4101 ;;		None
  4102 ;; Auto vars:     Size  Location     Type
  4103 ;;		None
  4104 ;; Return value:  Size  Location     Type
  4105 ;;                  1    wreg      enum E16630
  4106 ;; Registers used:
  4107 ;;		wreg
  4108 ;; Tracked objects:
  4109 ;;		On entry : 0/0
  4110 ;;		On exit  : 0/0
  4111 ;;		Unchanged: 0/0
  4112 ;; Data sizes:     COMRAM   BANK0   BANK1   BANK2   BANK3   BANK4   BANK5   BANK6   BANK7   BANK8   BANK9  BANK10  BANK1
      +1  BANK12  BANK13  BANK14  BANK15
  4113 ;;      Params:         0       0       0       0       0       0       0       0       0       0       0       0       
      +0       0       0       0       0
  4114 ;;      Locals:         0       0       0       0       0       0       0       0       0       0       0       0       
      +0       0       0       0       0
  4115 ;;      Temps:          0       0       0       0       0       0       0       0       0       0       0       0       
      +0       0       0       0       0
  4116 ;;      Totals:         0       0       0       0       0       0       0       0       0       0       0       0       
      +0       0       0       0       0
  4117 ;;Total ram usage:        0 bytes
  4118 ;; Hardware stack levels used: 1
  4119 ;; This function calls:
  4120 ;;		Nothing
  4121 ;; This function is called by:
  4122 ;;		_I2C1_DO_ADDRESS_NACK
  4123 ;;		_I2C1_MasterFsm
  4124 ;; This function uses a non-reentrant model
  4125 ;;
  4126                           
  4127                           	psect	text38
  4128   00211E                     __ptext38:
  4129                           	callstack 0
  4130   00211E                     _I2C1_DO_SEND_RESTART:
  4131                           	callstack 24
  4132   00211E                     
  4133                           ;mcc_generated_files/i2c1_master.c: 518:     return I2C1_SEND_ADR_READ;
  4134   00211E  0E01               	movlw	1
  4135   002120  0012               	return		;funcret
  4136   002122                     __end_of_I2C1_DO_SEND_RESTART:
  4137                           	callstack 0
  4138                           
  4139 ;; *************** function _I2C1_DO_SEND_RESTART_WRITE *****************
  4140 ;; Defined at:
  4141 ;;		line 510 in file "mcc_generated_files/i2c1_master.c"
  4142 ;; Parameters:    Size  Location     Type
  4143 ;;		None
  4144 ;; Auto vars:     Size  Location     Type
  4145 ;;		None
  4146 ;; Return value:  Size  Location     Type
  4147 ;;                  1    wreg      enum E16630
  4148 ;; Registers used:
  4149 ;;		wreg
  4150 ;; Tracked objects:
  4151 ;;		On entry : 0/0
  4152 ;;		On exit  : 0/0
  4153 ;;		Unchanged: 0/0
  4154 ;; Data sizes:     COMRAM   BANK0   BANK1   BANK2   BANK3   BANK4   BANK5   BANK6   BANK7   BANK8   BANK9  BANK10  BANK1
      +1  BANK12  BANK13  BANK14  BANK15
  4155 ;;      Params:         0       0       0       0       0       0       0       0       0       0       0       0       
      +0       0       0       0       0
  4156 ;;      Locals:         0       0       0       0       0       0       0       0       0       0       0       0       
      +0       0       0       0       0
  4157 ;;      Temps:          0       0       0       0       0       0       0       0       0       0       0       0       
      +0       0       0       0       0
  4158 ;;      Totals:         0       0       0       0       0       0       0       0       0       0       0       0       
      +0       0       0       0       0
  4159 ;;Total ram usage:        0 bytes
  4160 ;; Hardware stack levels used: 1
  4161 ;; This function calls:
  4162 ;;		Nothing
  4163 ;; This function is called by:
  4164 ;;		_I2C1_DO_TX
  4165 ;;		_I2C1_DO_BUS_COLLISION
  4166 ;;		_I2C1_MasterFsm
  4167 ;; This function uses a non-reentrant model
  4168 ;;
  4169                           
  4170                           	psect	text39
  4171   002122                     __ptext39:
  4172                           	callstack 0
  4173   002122                     _I2C1_DO_SEND_RESTART_WRITE:
  4174                           	callstack 23
  4175   002122                     
  4176                           ;mcc_generated_files/i2c1_master.c: 512:     return I2C1_SEND_ADR_WRITE;
  4177   002122  0E02               	movlw	2
  4178   002124  0012               	return		;funcret
  4179   002126                     __end_of_I2C1_DO_SEND_RESTART_WRITE:
  4180                           	callstack 0
  4181                           
  4182 ;; *************** function _I2C1_DO_SEND_RESTART_READ *****************
  4183 ;; Defined at:
  4184 ;;		line 504 in file "mcc_generated_files/i2c1_master.c"
  4185 ;; Parameters:    Size  Location     Type
  4186 ;;		None
  4187 ;; Auto vars:     Size  Location     Type
  4188 ;;		None
  4189 ;; Return value:  Size  Location     Type
  4190 ;;                  1    wreg      enum E16630
  4191 ;; Registers used:
  4192 ;;		wreg, fsr2l, fsr2h, status,2, status,0, pcl, pclath, pclatu, tosl, prodl, prodh, cstack
  4193 ;; Tracked objects:
  4194 ;;		On entry : 0/0
  4195 ;;		On exit  : 0/0
  4196 ;;		Unchanged: 0/0
  4197 ;; Data sizes:     COMRAM   BANK0   BANK1   BANK2   BANK3   BANK4   BANK5   BANK6   BANK7   BANK8   BANK9  BANK10  BANK1
      +1  BANK12  BANK13  BANK14  BANK15
  4198 ;;      Params:         0       0       0       0       0       0       0       0       0       0       0       0       
      +0       0       0       0       0
  4199 ;;      Locals:         0       0       0       0       0       0       0       0       0       0       0       0       
      +0       0       0       0       0
  4200 ;;      Temps:          0       0       0       0       0       0       0       0       0       0       0       0       
      +0       0       0       0       0
  4201 ;;      Totals:         0       0       0       0       0       0       0       0       0       0       0       0       
      +0       0       0       0       0
  4202 ;;Total ram usage:        0 bytes
  4203 ;; Hardware stack levels used: 1
  4204 ;; Hardware stack levels required when called: 5
  4205 ;; This function calls:
  4206 ;;		_I2C1_DO_SEND_ADR_READ
  4207 ;;		_I2C1_MasterSetCounter
  4208 ;; This function is called by:
  4209 ;;		_I2C1_DO_TX
  4210 ;;		_I2C1_DO_BUS_COLLISION
  4211 ;;		_I2C1_MasterFsm
  4212 ;; This function uses a non-reentrant model
  4213 ;;
  4214                           
  4215                           	psect	text40
  4216   00204A                     __ptext40:
  4217                           	callstack 0
  4218   00204A                     _I2C1_DO_SEND_RESTART_READ:
  4219                           	callstack 18
  4220   00204A                     
  4221                           ;mcc_generated_files/i2c1_master.c: 506:     I2C1_MasterSetCounter((uint8_t) I2C1_Status
      +                          .data_length);
  4222   00204A  504D               	movf	(_I2C1_Status+31)^0,w,c
  4223   00204C  EC4F  F010         	call	_I2C1_MasterSetCounter
  4224   002050                     
  4225                           ;mcc_generated_files/i2c1_master.c: 507:     return I2C1_DO_SEND_ADR_READ();
  4226   002050  ECEA  F00E         	call	_I2C1_DO_SEND_ADR_READ	;wreg free
  4227   002054  0012               	return		;funcret
  4228   002056                     __end_of_I2C1_DO_SEND_RESTART_READ:
  4229                           	callstack 0
  4230                           
  4231 ;; *************** function _I2C1_DO_RX_EMPTY *****************
  4232 ;; Defined at:
  4233 ;;		line 479 in file "mcc_generated_files/i2c1_master.c"
  4234 ;; Parameters:    Size  Location     Type
  4235 ;;		None
  4236 ;; Auto vars:     Size  Location     Type
  4237 ;;		None
  4238 ;; Return value:  Size  Location     Type
  4239 ;;                  1    wreg      enum E16630
  4240 ;; Registers used:
  4241 ;;		wreg, fsr2l, fsr2h, status,2, status,0, pcl, pclath, pclatu, tosl, prodl, prodh, cstack
  4242 ;; Tracked objects:
  4243 ;;		On entry : 0/0
  4244 ;;		On exit  : 0/0
  4245 ;;		Unchanged: 0/0
  4246 ;; Data sizes:     COMRAM   BANK0   BANK1   BANK2   BANK3   BANK4   BANK5   BANK6   BANK7   BANK8   BANK9  BANK10  BANK1
      +1  BANK12  BANK13  BANK14  BANK15
  4247 ;;      Params:         0       0       0       0       0       0       0       0       0       0       0       0       
      +0       0       0       0       0
  4248 ;;      Locals:         0       0       0       0       0       0       0       0       0       0       0       0       
      +0       0       0       0       0
  4249 ;;      Temps:          2       0       0       0       0       0       0       0       0       0       0       0       
      +0       0       0       0       0
  4250 ;;      Totals:         2       0       0       0       0       0       0       0       0       0       0       0       
      +0       0       0       0       0
  4251 ;;Total ram usage:        2 bytes
  4252 ;; Hardware stack levels used: 1
  4253 ;; Hardware stack levels required when called: 3
  4254 ;; This function calls:
  4255 ;;		NULL
  4256 ;;		_I2C1_CallbackReturnReset
  4257 ;;		_I2C1_CallbackReturnStop
  4258 ;;		_I2C1_MasterDisableRestart
  4259 ;;		_I2C1_MasterEnableRestart
  4260 ;;		_I2C1_MasterSetCounter
  4261 ;;		_rd1RegCompleteHandler
  4262 ;;		_rd2RegCompleteHandler
  4263 ;;		_rdBlkRegCompleteHandler
  4264 ;;		_wr1RegCompleteHandler
  4265 ;;		_wr2RegCompleteHandler
  4266 ;; This function is called by:
  4267 ;;		_I2C1_DO_SEND_ADR_READ
  4268 ;;		_I2C1_DO_RX
  4269 ;;		_I2C1_MasterFsm
  4270 ;; This function uses a non-reentrant model
  4271 ;;
  4272                           
  4273                           	psect	text41
  4274   001572                     __ptext41:
  4275                           	callstack 0
  4276   001572                     _I2C1_DO_RX_EMPTY:
  4277                           	callstack 18
  4278   001572                     
  4279                           ;mcc_generated_files/i2c1_master.c: 481:     I2C1_Status.bufferFree = 1;
  4280   001572  8851               	bsf	(_I2C1_Status+35)^0,4,c
  4281                           
  4282                           ;mcc_generated_files/i2c1_master.c: 482:     switch(I2C1_Status.callbackTable[I2C1_DATA_
      +                          COMPLETE](I2C1_Status.callbackPayload[I2C1_DATA_COMPLETE]))
  4283   001574  EFDA  F00A         	goto	l2780
  4284   001578                     l2752:
  4285                           
  4286                           ;mcc_generated_files/i2c1_master.c: 485:             I2C1_MasterEnableRestart();
  4287   001578  EC80  F010         	call	_I2C1_MasterEnableRestart	;wreg free
  4288   00157C                     
  4289                           ;mcc_generated_files/i2c1_master.c: 486:             return I2C1_SEND_RESTART_WRITE;
  4290   00157C  0E08               	movlw	8
  4291   00157E  EF06  F00B         	goto	l486
  4292   001582                     l2758:
  4293                           
  4294                           ;mcc_generated_files/i2c1_master.c: 488:             I2C1_MasterEnableRestart();
  4295   001582  EC80  F010         	call	_I2C1_MasterEnableRestart	;wreg free
  4296   001586                     
  4297                           ;mcc_generated_files/i2c1_master.c: 489:             return I2C1_SEND_RESTART_READ;
  4298   001586  0E07               	movlw	7
  4299   001588  EF06  F00B         	goto	l486
  4300   00158C                     l2764:
  4301                           
  4302                           ;mcc_generated_files/i2c1_master.c: 492:             I2C1_MasterSetCounter((uint8_t) (I2
      +                          C1_Status.data_length + 1));
  4303   00158C  284D               	incf	(_I2C1_Status+31)^0,w,c
  4304   00158E  EC4F  F010         	call	_I2C1_MasterSetCounter
  4305   001592                     
  4306                           ;mcc_generated_files/i2c1_master.c: 493:             return I2C1_RX;
  4307   001592  0E04               	movlw	4
  4308   001594  EF06  F00B         	goto	l486
  4309   001598                     l2770:
  4310                           
  4311                           ;mcc_generated_files/i2c1_master.c: 496:             if(I2C1_Status.state != I2C1_SEND_R
      +                          ESTART_READ)
  4312   001598  0E07               	movlw	7
  4313   00159A  184F               	xorwf	(_I2C1_Status+33)^0,w,c
  4314   00159C  B4D8               	btfsc	status,2,c
  4315   00159E  EFD3  F00A         	goto	u851
  4316   0015A2  EFD5  F00A         	goto	u850
  4317   0015A6                     u851:
  4318   0015A6  EFD7  F00A         	goto	l2774
  4319   0015AA                     u850:
  4320   0015AA                     
  4321                           ;mcc_generated_files/i2c1_master.c: 497:             {;mcc_generated_files/i2c1_master.c
      +                          : 498:                 I2C1_MasterDisableRestart();
  4322   0015AA  EC83  F010         	call	_I2C1_MasterDisableRestart	;wreg free
  4323   0015AE                     l2774:
  4324                           
  4325                           ;mcc_generated_files/i2c1_master.c: 500:             return I2C1_RESET;
  4326   0015AE  0E0F               	movlw	15
  4327   0015B0  EF06  F00B         	goto	l486
  4328   0015B4                     l2780:
  4329   0015B4  C03A  F00A         	movff	_I2C1_Status+12,I2C1_CallbackReturnReset@funPtr
  4330   0015B8  C03B  F00B         	movff	_I2C1_Status+13,I2C1_CallbackReturnReset@funPtr+1
  4331   0015BC  D802               	call	u868
  4332   0015BE  EFEA  F00A         	goto	u869
  4333   0015C2                     u868:
  4334   0015C2  0005               	push	
  4335   0015C4  6EFA               	movwf	pclath,c
  4336   0015C6  502E               	movf	_I2C1_Status^0,w,c
  4337   0015C8  6EFD               	movwf	tosl,c
  4338   0015CA  502F               	movf	(_I2C1_Status+1)^0,w,c
  4339   0015CC  6EFE               	movwf	tosh,c
  4340   0015CE  6AFF               	clrf	tosu,c
  4341   0015D0  50FA               	movf	pclath,w,c
  4342   0015D2  0012               	return		;indir
  4343   0015D4                     u869:
  4344   0015D4  6E0D               	movwf	??_I2C1_DO_RX_EMPTY^0,c
  4345   0015D6  6A0E               	clrf	(??_I2C1_DO_RX_EMPTY+1)^0,c
  4346                           
  4347                           ; Switch on 2 bytes has been partitioned into a top level switch of size 1, and 1 sub-sw
      +                          itches
  4348                           ; Switch size 1, requested type "simple"
  4349                           ; Number of cases is 1, Range of values is 0 to 0
  4350                           ; switch strategies available:
  4351                           ; Name         Instructions Cycles
  4352                           ; simple_byte            4     3 (average)
  4353                           ;	Chosen strategy is simple_byte
  4354   0015D8  500E               	movf	(??_I2C1_DO_RX_EMPTY+1)^0,w,c
  4355   0015DA  0A00               	xorlw	0	; case 0
  4356   0015DC  B4D8               	btfsc	status,2,c
  4357   0015DE  EFF3  F00A         	goto	l3718
  4358   0015E2  EFCC  F00A         	goto	l2770
  4359   0015E6                     l3718:
  4360                           
  4361                           ; Switch size 1, requested type "simple"
  4362                           ; Number of cases is 4, Range of values is 1 to 4
  4363                           ; switch strategies available:
  4364                           ; Name         Instructions Cycles
  4365                           ; simple_byte           13     7 (average)
  4366                           ;	Chosen strategy is simple_byte
  4367   0015E6  500D               	movf	??_I2C1_DO_RX_EMPTY^0,w,c
  4368   0015E8  0A01               	xorlw	1	; case 1
  4369   0015EA  B4D8               	btfsc	status,2,c
  4370   0015EC  EFCC  F00A         	goto	l2770
  4371   0015F0  0A03               	xorlw	3	; case 2
  4372   0015F2  B4D8               	btfsc	status,2,c
  4373   0015F4  EFC1  F00A         	goto	l2758
  4374   0015F8  0A01               	xorlw	1	; case 3
  4375   0015FA  B4D8               	btfsc	status,2,c
  4376   0015FC  EFBC  F00A         	goto	l2752
  4377   001600  0A07               	xorlw	7	; case 4
  4378   001602  B4D8               	btfsc	status,2,c
  4379   001604  EFC6  F00A         	goto	l2764
  4380   001608  EFCC  F00A         	goto	l2770
  4381   00160C                     l486:
  4382   00160C  0012               	return		;funcret
  4383   00160E                     __end_of_I2C1_DO_RX_EMPTY:
  4384                           	callstack 0
  4385                           
  4386 ;; *************** function _I2C1_DO_TX_EMPTY *****************
  4387 ;; Defined at:
  4388 ;;		line 460 in file "mcc_generated_files/i2c1_master.c"
  4389 ;; Parameters:    Size  Location     Type
  4390 ;;		None
  4391 ;; Auto vars:     Size  Location     Type
  4392 ;;		None
  4393 ;; Return value:  Size  Location     Type
  4394 ;;                  1    wreg      enum E16630
  4395 ;; Registers used:
  4396 ;;		wreg, fsr2l, fsr2h, status,2, status,0, pcl, pclath, pclatu, tosl, prodl, prodh, cstack
  4397 ;; Tracked objects:
  4398 ;;		On entry : 0/0
  4399 ;;		On exit  : 0/0
  4400 ;;		Unchanged: 0/0
  4401 ;; Data sizes:     COMRAM   BANK0   BANK1   BANK2   BANK3   BANK4   BANK5   BANK6   BANK7   BANK8   BANK9  BANK10  BANK1
      +1  BANK12  BANK13  BANK14  BANK15
  4402 ;;      Params:         0       0       0       0       0       0       0       0       0       0       0       0       
      +0       0       0       0       0
  4403 ;;      Locals:         0       0       0       0       0       0       0       0       0       0       0       0       
      +0       0       0       0       0
  4404 ;;      Temps:          2       0       0       0       0       0       0       0       0       0       0       0       
      +0       0       0       0       0
  4405 ;;      Totals:         2       0       0       0       0       0       0       0       0       0       0       0       
      +0       0       0       0       0
  4406 ;;Total ram usage:        2 bytes
  4407 ;; Hardware stack levels used: 1
  4408 ;; Hardware stack levels required when called: 3
  4409 ;; This function calls:
  4410 ;;		NULL
  4411 ;;		_I2C1_CallbackReturnReset
  4412 ;;		_I2C1_CallbackReturnStop
  4413 ;;		_I2C1_MasterDisableRestart
  4414 ;;		_I2C1_MasterEnableRestart
  4415 ;;		_I2C1_MasterSetCounter
  4416 ;;		_rd1RegCompleteHandler
  4417 ;;		_rd2RegCompleteHandler
  4418 ;;		_rdBlkRegCompleteHandler
  4419 ;;		_wr1RegCompleteHandler
  4420 ;;		_wr2RegCompleteHandler
  4421 ;; This function is called by:
  4422 ;;		_I2C1_DO_TX
  4423 ;;		_I2C1_MasterFsm
  4424 ;; This function uses a non-reentrant model
  4425 ;;
  4426                           
  4427                           	psect	text42
  4428   001734                     __ptext42:
  4429                           	callstack 0
  4430   001734                     _I2C1_DO_TX_EMPTY:
  4431                           	callstack 21
  4432   001734                     
  4433                           ;mcc_generated_files/i2c1_master.c: 462:     I2C1_Status.bufferFree = 1;
  4434   001734  8851               	bsf	(_I2C1_Status+35)^0,4,c
  4435                           
  4436                           ;mcc_generated_files/i2c1_master.c: 463:     switch(I2C1_Status.callbackTable[I2C1_DATA_
      +                          COMPLETE](I2C1_Status.callbackPayload[I2C1_DATA_COMPLETE]))
  4437   001736  EFAD  F00B         	goto	l2870
  4438   00173A                     l2850:
  4439                           
  4440                           ;mcc_generated_files/i2c1_master.c: 466:             I2C1_MasterEnableRestart();
  4441   00173A  EC80  F010         	call	_I2C1_MasterEnableRestart	;wreg free
  4442   00173E                     
  4443                           ;mcc_generated_files/i2c1_master.c: 467:             return I2C1_SEND_RESTART_READ;
  4444   00173E  0E07               	movlw	7
  4445   001740  EFD5  F00B         	goto	l477
  4446   001744                     l2856:
  4447                           
  4448                           ;mcc_generated_files/i2c1_master.c: 470:             I2C1_MasterSetCounter((uint8_t) I2C
      +                          1_Status.data_length + 1);
  4449   001744  284D               	incf	(_I2C1_Status+31)^0,w,c
  4450   001746  EC4F  F010         	call	_I2C1_MasterSetCounter
  4451   00174A                     
  4452                           ;mcc_generated_files/i2c1_master.c: 471:             return I2C1_TX;
  4453   00174A  0E03               	movlw	3
  4454   00174C  EFD5  F00B         	goto	l477
  4455   001750                     l2862:
  4456                           
  4457                           ;mcc_generated_files/i2c1_master.c: 474:             I2C1_MasterDisableRestart();
  4458   001750  EC83  F010         	call	_I2C1_MasterDisableRestart	;wreg free
  4459   001754                     
  4460                           ;mcc_generated_files/i2c1_master.c: 475:             return I2C1_SEND_STOP;
  4461   001754  0E0A               	movlw	10
  4462   001756  EFD5  F00B         	goto	l477
  4463   00175A                     l2870:
  4464   00175A  C03A  F00A         	movff	_I2C1_Status+12,I2C1_CallbackReturnReset@funPtr
  4465   00175E  C03B  F00B         	movff	_I2C1_Status+13,I2C1_CallbackReturnReset@funPtr+1
  4466   001762  D802               	call	u938
  4467   001764  EFBD  F00B         	goto	u939
  4468   001768                     u938:
  4469   001768  0005               	push	
  4470   00176A  6EFA               	movwf	pclath,c
  4471   00176C  502E               	movf	_I2C1_Status^0,w,c
  4472   00176E  6EFD               	movwf	tosl,c
  4473   001770  502F               	movf	(_I2C1_Status+1)^0,w,c
  4474   001772  6EFE               	movwf	tosh,c
  4475   001774  6AFF               	clrf	tosu,c
  4476   001776  50FA               	movf	pclath,w,c
  4477   001778  0012               	return		;indir
  4478   00177A                     u939:
  4479   00177A  6E0D               	movwf	??_I2C1_DO_TX_EMPTY^0,c
  4480   00177C  6A0E               	clrf	(??_I2C1_DO_TX_EMPTY+1)^0,c
  4481                           
  4482                           ; Switch on 2 bytes has been partitioned into a top level switch of size 1, and 1 sub-sw
      +                          itches
  4483                           ; Switch size 1, requested type "simple"
  4484                           ; Number of cases is 1, Range of values is 0 to 0
  4485                           ; switch strategies available:
  4486                           ; Name         Instructions Cycles
  4487                           ; simple_byte            4     3 (average)
  4488                           ;	Chosen strategy is simple_byte
  4489   00177E  500E               	movf	(??_I2C1_DO_TX_EMPTY+1)^0,w,c
  4490   001780  0A00               	xorlw	0	; case 0
  4491   001782  B4D8               	btfsc	status,2,c
  4492   001784  EFC6  F00B         	goto	l3720
  4493   001788  EFA8  F00B         	goto	l2862
  4494   00178C                     l3720:
  4495                           
  4496                           ; Switch size 1, requested type "simple"
  4497                           ; Number of cases is 3, Range of values is 1 to 4
  4498                           ; switch strategies available:
  4499                           ; Name         Instructions Cycles
  4500                           ; simple_byte           10     6 (average)
  4501                           ;	Chosen strategy is simple_byte
  4502   00178C  500D               	movf	??_I2C1_DO_TX_EMPTY^0,w,c
  4503   00178E  0A01               	xorlw	1	; case 1
  4504   001790  B4D8               	btfsc	status,2,c
  4505   001792  EFA8  F00B         	goto	l2862
  4506   001796  0A03               	xorlw	3	; case 2
  4507   001798  B4D8               	btfsc	status,2,c
  4508   00179A  EF9D  F00B         	goto	l2850
  4509   00179E  0A06               	xorlw	6	; case 4
  4510   0017A0  B4D8               	btfsc	status,2,c
  4511   0017A2  EFA2  F00B         	goto	l2856
  4512   0017A6  EFA8  F00B         	goto	l2862
  4513   0017AA                     l477:
  4514   0017AA  0012               	return		;funcret
  4515   0017AC                     __end_of_I2C1_DO_TX_EMPTY:
  4516                           	callstack 0
  4517                           
  4518 ;; *************** function _I2C1_DO_RX *****************
  4519 ;; Defined at:
  4520 ;;		line 436 in file "mcc_generated_files/i2c1_master.c"
  4521 ;; Parameters:    Size  Location     Type
  4522 ;;		None
  4523 ;; Auto vars:     Size  Location     Type
  4524 ;;  retFsmState     1   16[COMRAM] enum E16630
  4525 ;; Return value:  Size  Location     Type
  4526 ;;                  1    wreg      enum E16630
  4527 ;; Registers used:
  4528 ;;		wreg, fsr2l, fsr2h, status,2, status,0, pcl, pclath, pclatu, tosl, prodl, prodh, cstack
  4529 ;; Tracked objects:
  4530 ;;		On entry : 0/0
  4531 ;;		On exit  : 0/0
  4532 ;;		Unchanged: 0/0
  4533 ;; Data sizes:     COMRAM   BANK0   BANK1   BANK2   BANK3   BANK4   BANK5   BANK6   BANK7   BANK8   BANK9  BANK10  BANK1
      +1  BANK12  BANK13  BANK14  BANK15
  4534 ;;      Params:         0       0       0       0       0       0       0       0       0       0       0       0       
      +0       0       0       0       0
  4535 ;;      Locals:         1       0       0       0       0       0       0       0       0       0       0       0       
      +0       0       0       0       0
  4536 ;;      Temps:          2       0       0       0       0       0       0       0       0       0       0       0       
      +0       0       0       0       0
  4537 ;;      Totals:         3       0       0       0       0       0       0       0       0       0       0       0       
      +0       0       0       0       0
  4538 ;;Total ram usage:        3 bytes
  4539 ;; Hardware stack levels used: 1
  4540 ;; Hardware stack levels required when called: 4
  4541 ;; This function calls:
  4542 ;;		_I2C1_DO_RX_EMPTY
  4543 ;;		_I2C1_MasterGetRxData
  4544 ;;		_I2C1_MasterIsRxBufFull
  4545 ;; This function is called by:
  4546 ;;		_I2C1_MasterFsm
  4547 ;; This function uses a non-reentrant model
  4548 ;;
  4549                           
  4550                           	psect	text43
  4551   00160E                     __ptext43:
  4552                           	callstack 0
  4553   00160E                     _I2C1_DO_RX:
  4554                           	callstack 20
  4555   00160E                     
  4556                           ;mcc_generated_files/i2c1_master.c: 438:     if(!I2C1_MasterIsRxBufFull())
  4557   00160E  ECDA  F00F         	call	_I2C1_MasterIsRxBufFull	;wreg free
  4558   001612  0900               	iorlw	0
  4559   001614  A4D8               	btfss	status,2,c
  4560   001616  EF0F  F00B         	goto	u1031
  4561   00161A  EF11  F00B         	goto	u1030
  4562   00161E                     u1031:
  4563   00161E  EF14  F00B         	goto	l2988
  4564   001622                     u1030:
  4565   001622                     l2984:
  4566                           
  4567                           ;mcc_generated_files/i2c1_master.c: 439:     {;mcc_generated_files/i2c1_master.c: 440:  
      +                                 return I2C1_RX;
  4568   001622  0E04               	movlw	4
  4569   001624  EF52  F00B         	goto	l469
  4570   001628                     l2988:
  4571                           
  4572                           ;mcc_generated_files/i2c1_master.c: 442:     if(I2C1_Status.addressNackCheck)
  4573   001628  5051               	movf	(_I2C1_Status+35)^0,w,c
  4574   00162A  0B03               	andlw	3
  4575   00162C  0900               	iorlw	0
  4576   00162E  B4D8               	btfsc	status,2,c
  4577   001630  EF1C  F00B         	goto	u1041
  4578   001634  EF1E  F00B         	goto	u1040
  4579   001638                     u1041:
  4580   001638  EF2A  F00B         	goto	l470
  4581   00163C                     u1040:
  4582   00163C                     
  4583                           ;mcc_generated_files/i2c1_master.c: 443:     {;mcc_generated_files/i2c1_master.c: 444:  
      +                                 I2C1_Status.addressNackCheck--;
  4584   00163C  0E01               	movlw	1
  4585   00163E  6E0F               	movwf	??_I2C1_DO_RX^0,c
  4586   001640  5051               	movf	(_I2C1_Status+35)^0,w,c
  4587   001642  0B03               	andlw	3
  4588   001644  6E10               	movwf	(??_I2C1_DO_RX+1)^0,c
  4589   001646  500F               	movf	??_I2C1_DO_RX^0,w,c
  4590   001648  5E10               	subwf	(??_I2C1_DO_RX+1)^0,f,c
  4591   00164A  5051               	movf	(_I2C1_Status+35)^0,w,c
  4592   00164C  1810               	xorwf	(??_I2C1_DO_RX+1)^0,w,c
  4593   00164E  0BFC               	andlw	-4
  4594   001650  1810               	xorwf	(??_I2C1_DO_RX+1)^0,w,c
  4595   001652  6E51               	movwf	(_I2C1_Status+35)^0,c
  4596   001654                     l470:
  4597                           
  4598                           ;mcc_generated_files/i2c1_master.c: 447:     if(--I2C1_Status.data_length)
  4599   001654  064D               	decf	(_I2C1_Status+31)^0,f,c
  4600   001656  A0D8               	btfss	status,0,c
  4601   001658  064E               	decf	(_I2C1_Status+32)^0,f,c
  4602   00165A  504D               	movf	(_I2C1_Status+31)^0,w,c
  4603   00165C  104E               	iorwf	(_I2C1_Status+32)^0,w,c
  4604   00165E  B4D8               	btfsc	status,2,c
  4605   001660  EF34  F00B         	goto	u1051
  4606   001664  EF36  F00B         	goto	u1050
  4607   001668                     u1051:
  4608   001668  EF43  F00B         	goto	l3002
  4609   00166C                     u1050:
  4610   00166C                     
  4611                           ;mcc_generated_files/i2c1_master.c: 448:     {;mcc_generated_files/i2c1_master.c: 449:  
      +                                 *I2C1_Status.data_ptr++ = I2C1_MasterGetRxData();
  4612   00166C  EC7D  F010         	call	_I2C1_MasterGetRxData	;wreg free
  4613   001670  0060  F12F  FFD9   	movff	_I2C1_Status+29,fsr2l
  4614   001676  0060  F133  FFDA   	movff	_I2C1_Status+30,fsr2h
  4615   00167C  6EDF               	movwf	indf2,c
  4616   00167E  4A4B               	infsnz	(_I2C1_Status+29)^0,f,c
  4617   001680  2A4C               	incf	(_I2C1_Status+30)^0,f,c
  4618   001682  EF11  F00B         	goto	l2984
  4619   001686                     l3002:
  4620                           
  4621                           ;mcc_generated_files/i2c1_master.c: 453:     {;mcc_generated_files/i2c1_master.c: 454:  
      +                                 i2c1_fsm_states_t retFsmState = I2C1_DO_RX_EMPTY();
  4622   001686  ECB9  F00A         	call	_I2C1_DO_RX_EMPTY	;wreg free
  4623   00168A  6E11               	movwf	I2C1_DO_RX@retFsmState^0,c
  4624   00168C                     
  4625                           ;mcc_generated_files/i2c1_master.c: 455:         *I2C1_Status.data_ptr++ = I2C1_MasterGe
      +                          tRxData();
  4626   00168C  EC7D  F010         	call	_I2C1_MasterGetRxData	;wreg free
  4627   001690  0060  F12F  FFD9   	movff	_I2C1_Status+29,fsr2l
  4628   001696  0060  F133  FFDA   	movff	_I2C1_Status+30,fsr2h
  4629   00169C  6EDF               	movwf	indf2,c
  4630   00169E  4A4B               	infsnz	(_I2C1_Status+29)^0,f,c
  4631   0016A0  2A4C               	incf	(_I2C1_Status+30)^0,f,c
  4632   0016A2                     
  4633                           ;mcc_generated_files/i2c1_master.c: 456:         return retFsmState;
  4634   0016A2  5011               	movf	I2C1_DO_RX@retFsmState^0,w,c
  4635   0016A4                     l469:
  4636   0016A4  0012               	return		;funcret
  4637   0016A6                     __end_of_I2C1_DO_RX:
  4638                           	callstack 0
  4639                           
  4640 ;; *************** function _I2C1_DO_TX *****************
  4641 ;; Defined at:
  4642 ;;		line 403 in file "mcc_generated_files/i2c1_master.c"
  4643 ;; Parameters:    Size  Location     Type
  4644 ;;		None
  4645 ;; Auto vars:     Size  Location     Type
  4646 ;;  retFsmState     1   17[COMRAM] enum E16630
  4647 ;;  dataTx          1   16[COMRAM] unsigned char 
  4648 ;; Return value:  Size  Location     Type
  4649 ;;                  1    wreg      enum E16630
  4650 ;; Registers used:
  4651 ;;		wreg, fsr2l, fsr2h, status,2, status,0, pcl, pclath, pclatu, tosl, prodl, prodh, cstack
  4652 ;; Tracked objects:
  4653 ;;		On entry : 0/0
  4654 ;;		On exit  : 0/0
  4655 ;;		Unchanged: 0/0
  4656 ;; Data sizes:     COMRAM   BANK0   BANK1   BANK2   BANK3   BANK4   BANK5   BANK6   BANK7   BANK8   BANK9  BANK10  BANK1
      +1  BANK12  BANK13  BANK14  BANK15
  4657 ;;      Params:         0       0       0       0       0       0       0       0       0       0       0       0       
      +0       0       0       0       0
  4658 ;;      Locals:         4       0       0       0       0       0       0       0       0       0       0       0       
      +0       0       0       0       0
  4659 ;;      Temps:          2       0       0       0       0       0       0       0       0       0       0       0       
      +0       0       0       0       0
  4660 ;;      Totals:         6       0       0       0       0       0       0       0       0       0       0       0       
      +0       0       0       0       0
  4661 ;;Total ram usage:        6 bytes
  4662 ;; Hardware stack levels used: 1
  4663 ;; Hardware stack levels required when called: 6
  4664 ;; This function calls:
  4665 ;;		NULL
  4666 ;;		_I2C1_CallbackReturnReset
  4667 ;;		_I2C1_CallbackReturnStop
  4668 ;;		_I2C1_DO_SEND_RESTART_READ
  4669 ;;		_I2C1_DO_SEND_RESTART_WRITE
  4670 ;;		_I2C1_DO_TX_EMPTY
  4671 ;;		_I2C1_MasterIsNack
  4672 ;;		_I2C1_MasterIsTxBufEmpty
  4673 ;;		_I2C1_MasterSendTxData
  4674 ;;		_rd1RegCompleteHandler
  4675 ;;		_rd2RegCompleteHandler
  4676 ;;		_rdBlkRegCompleteHandler
  4677 ;;		_wr1RegCompleteHandler
  4678 ;;		_wr2RegCompleteHandler
  4679 ;; This function is called by:
  4680 ;;		_I2C1_MasterFsm
  4681 ;; This function uses a non-reentrant model
  4682 ;;
  4683                           
  4684                           	psect	text44
  4685   001234                     __ptext44:
  4686                           	callstack 0
  4687   001234                     _I2C1_DO_TX:
  4688                           	callstack 18
  4689   001234                     
  4690                           ;mcc_generated_files/i2c1_master.c: 405:     if(I2C1_MasterIsNack())
  4691   001234  ECCF  F00F         	call	_I2C1_MasterIsNack	;wreg free
  4692   001238  0900               	iorlw	0
  4693   00123A  B4D8               	btfsc	status,2,c
  4694   00123C  EF22  F009         	goto	u981
  4695   001240  EF24  F009         	goto	u980
  4696   001244                     u981:
  4697   001244  EF5D  F009         	goto	l2948
  4698   001248                     u980:
  4699   001248  EF31  F009         	goto	l2946
  4700   00124C                     l2932:
  4701                           
  4702                           ;mcc_generated_files/i2c1_master.c: 410:                 return I2C1_DO_SEND_RESTART_REA
      +                          D();
  4703   00124C  EC25  F010         	call	_I2C1_DO_SEND_RESTART_READ	;wreg free
  4704   001250  EFA8  F009         	goto	l452
  4705   001254                     l2936:
  4706                           
  4707                           ;mcc_generated_files/i2c1_master.c: 412:                   return I2C1_DO_SEND_RESTART_W
      +                          RITE();
  4708   001254  EC91  F010         	call	_I2C1_DO_SEND_RESTART_WRITE	;wreg free
  4709   001258  EFA8  F009         	goto	l452
  4710   00125C                     l2940:
  4711                           
  4712                           ;mcc_generated_files/i2c1_master.c: 416:                 return I2C1_IDLE;
  4713   00125C  0E00               	movlw	0
  4714   00125E  EFA8  F009         	goto	l452
  4715   001262                     l2946:
  4716   001262  C040  F00A         	movff	_I2C1_Status+18,I2C1_CallbackReturnReset@funPtr
  4717   001266  C041  F00B         	movff	_I2C1_Status+19,I2C1_CallbackReturnReset@funPtr+1
  4718   00126A  D802               	call	u998
  4719   00126C  EF41  F009         	goto	u999
  4720   001270                     u998:
  4721   001270  0005               	push	
  4722   001272  6EFA               	movwf	pclath,c
  4723   001274  5034               	movf	(_I2C1_Status+6)^0,w,c
  4724   001276  6EFD               	movwf	tosl,c
  4725   001278  5035               	movf	(_I2C1_Status+7)^0,w,c
  4726   00127A  6EFE               	movwf	tosh,c
  4727   00127C  6AFF               	clrf	tosu,c
  4728   00127E  50FA               	movf	pclath,w,c
  4729   001280  0012               	return		;indir
  4730   001282                     u999:
  4731   001282  6E0D               	movwf	??_I2C1_DO_TX^0,c
  4732   001284  6A0E               	clrf	(??_I2C1_DO_TX+1)^0,c
  4733                           
  4734                           ; Switch on 2 bytes has been partitioned into a top level switch of size 1, and 1 sub-sw
      +                          itches
  4735                           ; Switch size 1, requested type "simple"
  4736                           ; Number of cases is 1, Range of values is 0 to 0
  4737                           ; switch strategies available:
  4738                           ; Name         Instructions Cycles
  4739                           ; simple_byte            4     3 (average)
  4740                           ;	Chosen strategy is simple_byte
  4741   001286  500E               	movf	(??_I2C1_DO_TX+1)^0,w,c
  4742   001288  0A00               	xorlw	0	; case 0
  4743   00128A  B4D8               	btfsc	status,2,c
  4744   00128C  EF4A  F009         	goto	l3722
  4745   001290  EF2E  F009         	goto	l2940
  4746   001294                     l3722:
  4747                           
  4748                           ; Switch size 1, requested type "simple"
  4749                           ; Number of cases is 4, Range of values is 1 to 4
  4750                           ; switch strategies available:
  4751                           ; Name         Instructions Cycles
  4752                           ; simple_byte           13     7 (average)
  4753                           ;	Chosen strategy is simple_byte
  4754   001294  500D               	movf	??_I2C1_DO_TX^0,w,c
  4755   001296  0A01               	xorlw	1	; case 1
  4756   001298  B4D8               	btfsc	status,2,c
  4757   00129A  EF2E  F009         	goto	l2940
  4758   00129E  0A03               	xorlw	3	; case 2
  4759   0012A0  B4D8               	btfsc	status,2,c
  4760   0012A2  EF26  F009         	goto	l2932
  4761   0012A6  0A01               	xorlw	1	; case 3
  4762   0012A8  B4D8               	btfsc	status,2,c
  4763   0012AA  EF2A  F009         	goto	l2936
  4764   0012AE  0A07               	xorlw	7	; case 4
  4765   0012B0  B4D8               	btfsc	status,2,c
  4766   0012B2  EF2E  F009         	goto	l2940
  4767   0012B6  EF2E  F009         	goto	l2940
  4768   0012BA                     l2948:
  4769   0012BA  ECC4  F00F         	call	_I2C1_MasterIsTxBufEmpty	;wreg free
  4770   0012BE  0900               	iorlw	0
  4771   0012C0  B4D8               	btfsc	status,2,c
  4772   0012C2  EF65  F009         	goto	u1001
  4773   0012C6  EF67  F009         	goto	u1000
  4774   0012CA                     u1001:
  4775   0012CA  EFA7  F009         	goto	l2974
  4776   0012CE                     u1000:
  4777   0012CE                     
  4778                           ;mcc_generated_files/i2c1_master.c: 420:     {;mcc_generated_files/i2c1_master.c: 421:  
      +                                 if(I2C1_Status.addressNackCheck)
  4779   0012CE  5051               	movf	(_I2C1_Status+35)^0,w,c
  4780   0012D0  0B03               	andlw	3
  4781   0012D2  0900               	iorlw	0
  4782   0012D4  B4D8               	btfsc	status,2,c
  4783   0012D6  EF6F  F009         	goto	u1011
  4784   0012DA  EF71  F009         	goto	u1010
  4785   0012DE                     u1011:
  4786   0012DE  EF7D  F009         	goto	l2954
  4787   0012E2                     u1010:
  4788   0012E2                     
  4789                           ;mcc_generated_files/i2c1_master.c: 422:         {;mcc_generated_files/i2c1_master.c: 42
      +                          3:             I2C1_Status.addressNackCheck--;
  4790   0012E2  0E01               	movlw	1
  4791   0012E4  6E0D               	movwf	??_I2C1_DO_TX^0,c
  4792   0012E6  5051               	movf	(_I2C1_Status+35)^0,w,c
  4793   0012E8  0B03               	andlw	3
  4794   0012EA  6E0E               	movwf	(??_I2C1_DO_TX+1)^0,c
  4795   0012EC  500D               	movf	??_I2C1_DO_TX^0,w,c
  4796   0012EE  5E0E               	subwf	(??_I2C1_DO_TX+1)^0,f,c
  4797   0012F0  5051               	movf	(_I2C1_Status+35)^0,w,c
  4798   0012F2  180E               	xorwf	(??_I2C1_DO_TX+1)^0,w,c
  4799   0012F4  0BFC               	andlw	-4
  4800   0012F6  180E               	xorwf	(??_I2C1_DO_TX+1)^0,w,c
  4801   0012F8  6E51               	movwf	(_I2C1_Status+35)^0,c
  4802   0012FA                     l2954:
  4803                           
  4804                           ;mcc_generated_files/i2c1_master.c: 425:         uint8_t dataTx = *I2C1_Status.data_ptr+
      +                          +;
  4805   0012FA  0060  F12F  FFD9   	movff	_I2C1_Status+29,fsr2l
  4806   001300  0060  F133  FFDA   	movff	_I2C1_Status+30,fsr2h
  4807   001306  50DF               	movf	indf2,w,c
  4808   001308  6E11               	movwf	I2C1_DO_TX@dataTx^0,c
  4809   00130A  4A4B               	infsnz	(_I2C1_Status+29)^0,f,c
  4810   00130C  2A4C               	incf	(_I2C1_Status+30)^0,f,c
  4811   00130E                     
  4812                           ;mcc_generated_files/i2c1_master.c: 426:         i2c1_fsm_states_t retFsmState = (--I2C1
      +                          _Status.data_length)?I2C1_TX:I2C1_DO_TX_EMPTY();
  4813   00130E  064D               	decf	(_I2C1_Status+31)^0,f,c
  4814   001310  A0D8               	btfss	status,0,c
  4815   001312  064E               	decf	(_I2C1_Status+32)^0,f,c
  4816   001314  504D               	movf	(_I2C1_Status+31)^0,w,c
  4817   001316  104E               	iorwf	(_I2C1_Status+32)^0,w,c
  4818   001318  A4D8               	btfss	status,2,c
  4819   00131A  EF91  F009         	goto	u1021
  4820   00131E  EF93  F009         	goto	u1020
  4821   001322                     u1021:
  4822   001322  EF9B  F009         	goto	l2962
  4823   001326                     u1020:
  4824   001326  EC9A  F00B         	call	_I2C1_DO_TX_EMPTY	;wreg free
  4825   00132A  6E0D               	movwf	??_I2C1_DO_TX^0,c
  4826   00132C  500D               	movf	??_I2C1_DO_TX^0,w,c
  4827   00132E  6E0F               	movwf	_I2C1_DO_TX$1073^0,c
  4828   001330  6A10               	clrf	(_I2C1_DO_TX$1073+1)^0,c
  4829   001332  EF9F  F009         	goto	l2964
  4830   001336                     l2962:
  4831   001336  0E00               	movlw	0
  4832   001338  6E10               	movwf	(_I2C1_DO_TX$1073+1)^0,c
  4833   00133A  0E03               	movlw	3
  4834   00133C  6E0F               	movwf	_I2C1_DO_TX$1073^0,c
  4835   00133E                     l2964:
  4836   00133E  C00F  F012         	movff	_I2C1_DO_TX$1073,I2C1_DO_TX@retFsmState
  4837   001342                     
  4838                           ;mcc_generated_files/i2c1_master.c: 427:         I2C1_MasterSendTxData(dataTx);
  4839   001342  5011               	movf	I2C1_DO_TX@dataTx^0,w,c
  4840   001344  EC4A  F010         	call	_I2C1_MasterSendTxData
  4841   001348                     
  4842                           ;mcc_generated_files/i2c1_master.c: 428:         return retFsmState;
  4843   001348  5012               	movf	I2C1_DO_TX@retFsmState^0,w,c
  4844   00134A  EFA8  F009         	goto	l452
  4845   00134E                     l2974:
  4846                           
  4847                           ;mcc_generated_files/i2c1_master.c: 431:     {;mcc_generated_files/i2c1_master.c: 432:  
      +                                 return I2C1_TX;
  4848   00134E  0E03               	movlw	3
  4849   001350                     l452:
  4850   001350  0012               	return		;funcret
  4851   001352                     __end_of_I2C1_DO_TX:
  4852                           	callstack 0
  4853                           
  4854 ;; *************** function _I2C1_DO_SEND_ADR_WRITE *****************
  4855 ;; Defined at:
  4856 ;;		line 396 in file "mcc_generated_files/i2c1_master.c"
  4857 ;; Parameters:    Size  Location     Type
  4858 ;;		None
  4859 ;; Auto vars:     Size  Location     Type
  4860 ;;		None
  4861 ;; Return value:  Size  Location     Type
  4862 ;;                  1    wreg      enum E16630
  4863 ;; Registers used:
  4864 ;;		wreg, status,2, status,0, cstack
  4865 ;; Tracked objects:
  4866 ;;		On entry : 0/0
  4867 ;;		On exit  : 0/0
  4868 ;;		Unchanged: 0/0
  4869 ;; Data sizes:     COMRAM   BANK0   BANK1   BANK2   BANK3   BANK4   BANK5   BANK6   BANK7   BANK8   BANK9  BANK10  BANK1
      +1  BANK12  BANK13  BANK14  BANK15
  4870 ;;      Params:         0       0       0       0       0       0       0       0       0       0       0       0       
      +0       0       0       0       0
  4871 ;;      Locals:         0       0       0       0       0       0       0       0       0       0       0       0       
      +0       0       0       0       0
  4872 ;;      Temps:          0       0       0       0       0       0       0       0       0       0       0       0       
      +0       0       0       0       0
  4873 ;;      Totals:         0       0       0       0       0       0       0       0       0       0       0       0       
      +0       0       0       0       0
  4874 ;;Total ram usage:        0 bytes
  4875 ;; Hardware stack levels used: 1
  4876 ;; Hardware stack levels required when called: 1
  4877 ;; This function calls:
  4878 ;;		_I2C1_MasterSendTxData
  4879 ;; This function is called by:
  4880 ;;		_I2C1_MasterOperation
  4881 ;;		_I2C1_MasterFsm
  4882 ;; This function uses a non-reentrant model
  4883 ;;
  4884                           
  4885                           	psect	text45
  4886   00200C                     __ptext45:
  4887                           	callstack 0
  4888   00200C                     _I2C1_DO_SEND_ADR_WRITE:
  4889                           	callstack 23
  4890   00200C                     
  4891                           ;mcc_generated_files/i2c1_master.c: 398:     I2C1_Status.addressNackCheck = 2;
  4892   00200C  5051               	movf	(_I2C1_Status+35)^0,w,c
  4893   00200E  0BFC               	andlw	-4
  4894   002010  0902               	iorlw	2
  4895   002012  6E51               	movwf	(_I2C1_Status+35)^0,c
  4896   002014                     
  4897                           ;mcc_generated_files/i2c1_master.c: 399:     I2C1_MasterSendTxData((uint8_t) (I2C1_Statu
      +                          s.address << 1));
  4898   002014  504A               	movf	(_I2C1_Status+28)^0,w,c
  4899   002016  244A               	addwf	(_I2C1_Status+28)^0,w,c
  4900   002018  EC4A  F010         	call	_I2C1_MasterSendTxData
  4901   00201C                     
  4902                           ;mcc_generated_files/i2c1_master.c: 400:     return I2C1_TX;
  4903   00201C  0E03               	movlw	3
  4904   00201E  0012               	return		;funcret
  4905   002020                     __end_of_I2C1_DO_SEND_ADR_WRITE:
  4906                           	callstack 0
  4907                           
  4908 ;; *************** function _I2C1_DO_SEND_ADR_READ *****************
  4909 ;; Defined at:
  4910 ;;		line 385 in file "mcc_generated_files/i2c1_master.c"
  4911 ;; Parameters:    Size  Location     Type
  4912 ;;		None
  4913 ;; Auto vars:     Size  Location     Type
  4914 ;;		None
  4915 ;; Return value:  Size  Location     Type
  4916 ;;                  1    wreg      enum E16630
  4917 ;; Registers used:
  4918 ;;		wreg, fsr2l, fsr2h, status,2, status,0, pcl, pclath, pclatu, tosl, prodl, prodh, cstack
  4919 ;; Tracked objects:
  4920 ;;		On entry : 0/0
  4921 ;;		On exit  : 0/0
  4922 ;;		Unchanged: 0/0
  4923 ;; Data sizes:     COMRAM   BANK0   BANK1   BANK2   BANK3   BANK4   BANK5   BANK6   BANK7   BANK8   BANK9  BANK10  BANK1
      +1  BANK12  BANK13  BANK14  BANK15
  4924 ;;      Params:         0       0       0       0       0       0       0       0       0       0       0       0       
      +0       0       0       0       0
  4925 ;;      Locals:         0       0       0       0       0       0       0       0       0       0       0       0       
      +0       0       0       0       0
  4926 ;;      Temps:          0       0       0       0       0       0       0       0       0       0       0       0       
      +0       0       0       0       0
  4927 ;;      Totals:         0       0       0       0       0       0       0       0       0       0       0       0       
      +0       0       0       0       0
  4928 ;;Total ram usage:        0 bytes
  4929 ;; Hardware stack levels used: 1
  4930 ;; Hardware stack levels required when called: 4
  4931 ;; This function calls:
  4932 ;;		_I2C1_DO_RX_EMPTY
  4933 ;;		_I2C1_MasterSendTxData
  4934 ;; This function is called by:
  4935 ;;		_I2C1_MasterOperation
  4936 ;;		_I2C1_DO_SEND_RESTART_READ
  4937 ;;		_I2C1_MasterFsm
  4938 ;; This function uses a non-reentrant model
  4939 ;;
  4940                           
  4941                           	psect	text46
  4942   001DD4                     __ptext46:
  4943                           	callstack 0
  4944   001DD4                     _I2C1_DO_SEND_ADR_READ:
  4945                           	callstack 18
  4946   001DD4                     
  4947                           ;mcc_generated_files/i2c1_master.c: 387:     I2C1_Status.addressNackCheck = 2;
  4948   001DD4  5051               	movf	(_I2C1_Status+35)^0,w,c
  4949   001DD6  0BFC               	andlw	-4
  4950   001DD8  0902               	iorlw	2
  4951   001DDA  6E51               	movwf	(_I2C1_Status+35)^0,c
  4952   001DDC                     
  4953                           ;mcc_generated_files/i2c1_master.c: 388:     if(I2C1_Status.data_length == 1)
  4954   001DDC  044D               	decf	(_I2C1_Status+31)^0,w,c
  4955   001DDE  104E               	iorwf	(_I2C1_Status+32)^0,w,c
  4956   001DE0  A4D8               	btfss	status,2,c
  4957   001DE2  EFF5  F00E         	goto	u871
  4958   001DE6  EFF7  F00E         	goto	u870
  4959   001DEA                     u871:
  4960   001DEA  EFF9  F00E         	goto	l2794
  4961   001DEE                     u870:
  4962   001DEE                     
  4963                           ;mcc_generated_files/i2c1_master.c: 389:     {;mcc_generated_files/i2c1_master.c: 390:  
      +                                 I2C1_DO_RX_EMPTY();
  4964   001DEE  ECB9  F00A         	call	_I2C1_DO_RX_EMPTY	;wreg free
  4965   001DF2                     l2794:
  4966                           
  4967                           ;mcc_generated_files/i2c1_master.c: 392:     I2C1_MasterSendTxData((uint8_t) (I2C1_Statu
      +                          s.address << 1 | 1));
  4968   001DF2  80D8               	bsf	status,0,c
  4969   001DF4  344A               	rlcf	(_I2C1_Status+28)^0,w,c
  4970   001DF6  EC4A  F010         	call	_I2C1_MasterSendTxData
  4971   001DFA                     
  4972                           ;mcc_generated_files/i2c1_master.c: 393:     return I2C1_RX;
  4973   001DFA  0E04               	movlw	4
  4974   001DFC  0012               	return		;funcret
  4975   001DFE                     __end_of_I2C1_DO_SEND_ADR_READ:
  4976                           	callstack 0
  4977                           
  4978 ;; *************** function _I2C1_DO_IDLE *****************
  4979 ;; Defined at:
  4980 ;;		line 378 in file "mcc_generated_files/i2c1_master.c"
  4981 ;; Parameters:    Size  Location     Type
  4982 ;;		None
  4983 ;; Auto vars:     Size  Location     Type
  4984 ;;		None
  4985 ;; Return value:  Size  Location     Type
  4986 ;;                  1    wreg      enum E16630
  4987 ;; Registers used:
  4988 ;;		wreg, status,2
  4989 ;; Tracked objects:
  4990 ;;		On entry : 0/0
  4991 ;;		On exit  : 0/0
  4992 ;;		Unchanged: 0/0
  4993 ;; Data sizes:     COMRAM   BANK0   BANK1   BANK2   BANK3   BANK4   BANK5   BANK6   BANK7   BANK8   BANK9  BANK10  BANK1
      +1  BANK12  BANK13  BANK14  BANK15
  4994 ;;      Params:         0       0       0       0       0       0       0       0       0       0       0       0       
      +0       0       0       0       0
  4995 ;;      Locals:         0       0       0       0       0       0       0       0       0       0       0       0       
      +0       0       0       0       0
  4996 ;;      Temps:          0       0       0       0       0       0       0       0       0       0       0       0       
      +0       0       0       0       0
  4997 ;;      Totals:         0       0       0       0       0       0       0       0       0       0       0       0       
      +0       0       0       0       0
  4998 ;;Total ram usage:        0 bytes
  4999 ;; Hardware stack levels used: 1
  5000 ;; This function calls:
  5001 ;;		Nothing
  5002 ;; This function is called by:
  5003 ;;		_I2C1_DO_RX_NACK_STOP
  5004 ;;		_I2C1_MasterFsm
  5005 ;; This function uses a non-reentrant model
  5006 ;;
  5007                           
  5008                           	psect	text47
  5009   00208A                     __ptext47:
  5010                           	callstack 0
  5011   00208A                     _I2C1_DO_IDLE:
  5012                           	callstack 23
  5013   00208A                     
  5014                           ;mcc_generated_files/i2c1_master.c: 380:     I2C1_Status.busy = 0;
  5015   00208A  9451               	bcf	(_I2C1_Status+35)^0,2,c
  5016   00208C                     
  5017                           ;mcc_generated_files/i2c1_master.c: 381:     I2C1_Status.error = I2C1_NOERR;
  5018   00208C  0E00               	movlw	0
  5019   00208E  6E50               	movwf	(_I2C1_Status+34)^0,c
  5020   002090                     
  5021                           ;mcc_generated_files/i2c1_master.c: 382:     return I2C1_RESET;
  5022   002090  0E0F               	movlw	15
  5023   002092  0012               	return		;funcret
  5024   002094                     __end_of_I2C1_DO_IDLE:
  5025                           	callstack 0
  5026                           
  5027 ;; *************** function _I2C1_DO_TX_ACK *****************
  5028 ;; Defined at:
  5029 ;;		line 538 in file "mcc_generated_files/i2c1_master.c"
  5030 ;; Parameters:    Size  Location     Type
  5031 ;;		None
  5032 ;; Auto vars:     Size  Location     Type
  5033 ;;		None
  5034 ;; Return value:  Size  Location     Type
  5035 ;;                  1    wreg      enum E16630
  5036 ;; Registers used:
  5037 ;;		wreg, cstack
  5038 ;; Tracked objects:
  5039 ;;		On entry : 0/0
  5040 ;;		On exit  : 0/0
  5041 ;;		Unchanged: 0/0
  5042 ;; Data sizes:     COMRAM   BANK0   BANK1   BANK2   BANK3   BANK4   BANK5   BANK6   BANK7   BANK8   BANK9  BANK10  BANK1
      +1  BANK12  BANK13  BANK14  BANK15
  5043 ;;      Params:         0       0       0       0       0       0       0       0       0       0       0       0       
      +0       0       0       0       0
  5044 ;;      Locals:         0       0       0       0       0       0       0       0       0       0       0       0       
      +0       0       0       0       0
  5045 ;;      Temps:          0       0       0       0       0       0       0       0       0       0       0       0       
      +0       0       0       0       0
  5046 ;;      Totals:         0       0       0       0       0       0       0       0       0       0       0       0       
      +0       0       0       0       0
  5047 ;;Total ram usage:        0 bytes
  5048 ;; Hardware stack levels used: 1
  5049 ;; Hardware stack levels required when called: 1
  5050 ;; This function calls:
  5051 ;;		_I2C1_MasterSendAck
  5052 ;; This function is called by:
  5053 ;;		_I2C1_MasterFsm
  5054 ;; This function uses a non-reentrant model
  5055 ;;
  5056                           
  5057                           	psect	text48
  5058   0020D2                     __ptext48:
  5059                           	callstack 0
  5060   0020D2                     _I2C1_DO_TX_ACK:
  5061                           	callstack 23
  5062   0020D2                     
  5063                           ;mcc_generated_files/i2c1_master.c: 540:     I2C1_MasterSendAck();
  5064   0020D2  EC7A  F010         	call	_I2C1_MasterSendAck	;wreg free
  5065   0020D6                     
  5066                           ;mcc_generated_files/i2c1_master.c: 541:     return I2C1_TX;
  5067   0020D6  0E03               	movlw	3
  5068   0020D8  0012               	return		;funcret
  5069   0020DA                     __end_of_I2C1_DO_TX_ACK:
  5070                           	callstack 0
  5071                           
  5072 ;; *************** function _I2C1_MasterIsTxBufEmpty *****************
  5073 ;; Defined at:
  5074 ;;		line 740 in file "mcc_generated_files/i2c1_master.c"
  5075 ;; Parameters:    Size  Location     Type
  5076 ;;		None
  5077 ;; Auto vars:     Size  Location     Type
  5078 ;;		None
  5079 ;; Return value:  Size  Location     Type
  5080 ;;                  1    wreg      _Bool 
  5081 ;; Registers used:
  5082 ;;		wreg
  5083 ;; Tracked objects:
  5084 ;;		On entry : 0/0
  5085 ;;		On exit  : 0/0
  5086 ;;		Unchanged: 0/0
  5087 ;; Data sizes:     COMRAM   BANK0   BANK1   BANK2   BANK3   BANK4   BANK5   BANK6   BANK7   BANK8   BANK9  BANK10  BANK1
      +1  BANK12  BANK13  BANK14  BANK15
  5088 ;;      Params:         0       0       0       0       0       0       0       0       0       0       0       0       
      +0       0       0       0       0
  5089 ;;      Locals:         0       0       0       0       0       0       0       0       0       0       0       0       
      +0       0       0       0       0
  5090 ;;      Temps:          0       0       0       0       0       0       0       0       0       0       0       0       
      +0       0       0       0       0
  5091 ;;      Totals:         0       0       0       0       0       0       0       0       0       0       0       0       
      +0       0       0       0       0
  5092 ;;Total ram usage:        0 bytes
  5093 ;; Hardware stack levels used: 1
  5094 ;; This function calls:
  5095 ;;		Nothing
  5096 ;; This function is called by:
  5097 ;;		_I2C1_DO_TX
  5098 ;; This function uses a non-reentrant model
  5099 ;;
  5100                           
  5101                           	psect	text49
  5102   001F88                     __ptext49:
  5103                           	callstack 0
  5104   001F88                     _I2C1_MasterIsTxBufEmpty:
  5105                           	callstack 23
  5106   001F88                     
  5107                           ;mcc_generated_files/i2c1_master.c: 742:     return I2C1STAT1bits.TXBE;
  5108   001F88  013D               	movlb	61	; () banked
  5109   001F8A  BB78               	btfsc	120,5,b	;volatile
  5110   001F8C  EFCA  F00F         	goto	u921
  5111   001F90  EFCD  F00F         	goto	u920
  5112   001F94                     u921:
  5113   001F94  0E01               	movlw	1
  5114   001F96  EFCE  F00F         	goto	u926
  5115   001F9A                     u920:
  5116   001F9A  0E00               	movlw	0
  5117   001F9C                     u926:
  5118   001F9C                     
  5119                           ; BSR set to: 61
  5120   001F9C  0012               	return		;funcret
  5121   001F9E                     __end_of_I2C1_MasterIsTxBufEmpty:
  5122                           	callstack 0
  5123                           
  5124 ;; *************** function _I2C1_MasterIsNack *****************
  5125 ;; Defined at:
  5126 ;;		line 713 in file "mcc_generated_files/i2c1_master.c"
  5127 ;; Parameters:    Size  Location     Type
  5128 ;;		None
  5129 ;; Auto vars:     Size  Location     Type
  5130 ;;		None
  5131 ;; Return value:  Size  Location     Type
  5132 ;;                  1    wreg      _Bool 
  5133 ;; Registers used:
  5134 ;;		wreg
  5135 ;; Tracked objects:
  5136 ;;		On entry : 0/0
  5137 ;;		On exit  : 0/0
  5138 ;;		Unchanged: 0/0
  5139 ;; Data sizes:     COMRAM   BANK0   BANK1   BANK2   BANK3   BANK4   BANK5   BANK6   BANK7   BANK8   BANK9  BANK10  BANK1
      +1  BANK12  BANK13  BANK14  BANK15
  5140 ;;      Params:         0       0       0       0       0       0       0       0       0       0       0       0       
      +0       0       0       0       0
  5141 ;;      Locals:         0       0       0       0       0       0       0       0       0       0       0       0       
      +0       0       0       0       0
  5142 ;;      Temps:          0       0       0       0       0       0       0       0       0       0       0       0       
      +0       0       0       0       0
  5143 ;;      Totals:         0       0       0       0       0       0       0       0       0       0       0       0       
      +0       0       0       0       0
  5144 ;;Total ram usage:        0 bytes
  5145 ;; Hardware stack levels used: 1
  5146 ;; This function calls:
  5147 ;;		Nothing
  5148 ;; This function is called by:
  5149 ;;		_I2C1_MasterFsm
  5150 ;;		_I2C1_DO_TX
  5151 ;; This function uses a non-reentrant model
  5152 ;;
  5153                           
  5154                           	psect	text50
  5155   001F9E                     __ptext50:
  5156                           	callstack 0
  5157   001F9E                     _I2C1_MasterIsNack:
  5158                           	callstack 24
  5159   001F9E                     
  5160                           ;mcc_generated_files/i2c1_master.c: 715:     return I2C1CON1bits.ACKSTAT;
  5161   001F9E  013D               	movlb	61	; () banked
  5162   001FA0  BB74               	btfsc	116,5,b	;volatile
  5163   001FA2  EFD5  F00F         	goto	u881
  5164   001FA6  EFD8  F00F         	goto	u880
  5165   001FAA                     u881:
  5166   001FAA  0E01               	movlw	1
  5167   001FAC  EFD9  F00F         	goto	u886
  5168   001FB0                     u880:
  5169   001FB0  0E00               	movlw	0
  5170   001FB2                     u886:
  5171   001FB2                     
  5172                           ; BSR set to: 61
  5173   001FB2  0012               	return		;funcret
  5174   001FB4                     __end_of_I2C1_MasterIsNack:
  5175                           	callstack 0
  5176                           
  5177 ;; *************** function _I2C1_MasterGetCounter *****************
  5178 ;; Defined at:
  5179 ;;		line 675 in file "mcc_generated_files/i2c1_master.c"
  5180 ;; Parameters:    Size  Location     Type
  5181 ;;		None
  5182 ;; Auto vars:     Size  Location     Type
  5183 ;;		None
  5184 ;; Return value:  Size  Location     Type
  5185 ;;                  1    wreg      unsigned char 
  5186 ;; Registers used:
  5187 ;;		wreg, status,2
  5188 ;; Tracked objects:
  5189 ;;		On entry : 0/0
  5190 ;;		On exit  : 0/0
  5191 ;;		Unchanged: 0/0
  5192 ;; Data sizes:     COMRAM   BANK0   BANK1   BANK2   BANK3   BANK4   BANK5   BANK6   BANK7   BANK8   BANK9  BANK10  BANK1
      +1  BANK12  BANK13  BANK14  BANK15
  5193 ;;      Params:         0       0       0       0       0       0       0       0       0       0       0       0       
      +0       0       0       0       0
  5194 ;;      Locals:         0       0       0       0       0       0       0       0       0       0       0       0       
      +0       0       0       0       0
  5195 ;;      Temps:          0       0       0       0       0       0       0       0       0       0       0       0       
      +0       0       0       0       0
  5196 ;;      Totals:         0       0       0       0       0       0       0       0       0       0       0       0       
      +0       0       0       0       0
  5197 ;;Total ram usage:        0 bytes
  5198 ;; Hardware stack levels used: 1
  5199 ;; This function calls:
  5200 ;;		Nothing
  5201 ;; This function is called by:
  5202 ;;		_I2C1_DO_SEND_STOP
  5203 ;; This function uses a non-reentrant model
  5204 ;;
  5205                           
  5206                           	psect	text51
  5207   0020E2                     __ptext51:
  5208                           	callstack 0
  5209   0020E2                     _I2C1_MasterGetCounter:
  5210                           	callstack 23
  5211   0020E2                     
  5212                           ;mcc_generated_files/i2c1_master.c: 677:     return I2C1CNT;
  5213   0020E2  013D               	movlb	61	; () banked
  5214   0020E4  516C               	movf	108,w,b	;volatile
  5215   0020E6                     
  5216                           ; BSR set to: 61
  5217   0020E6  0012               	return		;funcret
  5218   0020E8                     __end_of_I2C1_MasterGetCounter:
  5219                           	callstack 0
  5220                           
  5221 ;; *************** function _I2C1_MasterStop *****************
  5222 ;; Defined at:
  5223 ;;		line 707 in file "mcc_generated_files/i2c1_master.c"
  5224 ;; Parameters:    Size  Location     Type
  5225 ;;		None
  5226 ;; Auto vars:     Size  Location     Type
  5227 ;;		None
  5228 ;; Return value:  Size  Location     Type
  5229 ;;                  1    wreg      void 
  5230 ;; Registers used:
  5231 ;;		None
  5232 ;; Tracked objects:
  5233 ;;		On entry : 0/0
  5234 ;;		On exit  : 0/0
  5235 ;;		Unchanged: 0/0
  5236 ;; Data sizes:     COMRAM   BANK0   BANK1   BANK2   BANK3   BANK4   BANK5   BANK6   BANK7   BANK8   BANK9  BANK10  BANK1
      +1  BANK12  BANK13  BANK14  BANK15
  5237 ;;      Params:         0       0       0       0       0       0       0       0       0       0       0       0       
      +0       0       0       0       0
  5238 ;;      Locals:         0       0       0       0       0       0       0       0       0       0       0       0       
      +0       0       0       0       0
  5239 ;;      Temps:          0       0       0       0       0       0       0       0       0       0       0       0       
      +0       0       0       0       0
  5240 ;;      Totals:         0       0       0       0       0       0       0       0       0       0       0       0       
      +0       0       0       0       0
  5241 ;;Total ram usage:        0 bytes
  5242 ;; Hardware stack levels used: 1
  5243 ;; This function calls:
  5244 ;;		Nothing
  5245 ;; This function is called by:
  5246 ;;		_I2C1_DO_SEND_STOP
  5247 ;;		_I2C1_DO_RX_NACK_STOP
  5248 ;; This function uses a non-reentrant model
  5249 ;;
  5250                           
  5251                           	psect	text52
  5252   0020E8                     __ptext52:
  5253                           	callstack 0
  5254   0020E8                     _I2C1_MasterStop:
  5255                           	callstack 23
  5256   0020E8                     
  5257                           ;mcc_generated_files/i2c1_master.c: 710:     I2C1CON0bits.S = 0;
  5258   0020E8  013D               	movlb	61	; () banked
  5259   0020EA  9B73               	bcf	115,5,b	;volatile
  5260   0020EC                     
  5261                           ; BSR set to: 61
  5262   0020EC  0012               	return		;funcret
  5263   0020EE                     __end_of_I2C1_MasterStop:
  5264                           	callstack 0
  5265                           
  5266 ;; *************** function _I2C1_MasterSendNack *****************
  5267 ;; Defined at:
  5268 ;;		line 723 in file "mcc_generated_files/i2c1_master.c"
  5269 ;; Parameters:    Size  Location     Type
  5270 ;;		None
  5271 ;; Auto vars:     Size  Location     Type
  5272 ;;		None
  5273 ;; Return value:  Size  Location     Type
  5274 ;;                  1    wreg      void 
  5275 ;; Registers used:
  5276 ;;		None
  5277 ;; Tracked objects:
  5278 ;;		On entry : 0/0
  5279 ;;		On exit  : 0/0
  5280 ;;		Unchanged: 0/0
  5281 ;; Data sizes:     COMRAM   BANK0   BANK1   BANK2   BANK3   BANK4   BANK5   BANK6   BANK7   BANK8   BANK9  BANK10  BANK1
      +1  BANK12  BANK13  BANK14  BANK15
  5282 ;;      Params:         0       0       0       0       0       0       0       0       0       0       0       0       
      +0       0       0       0       0
  5283 ;;      Locals:         0       0       0       0       0       0       0       0       0       0       0       0       
      +0       0       0       0       0
  5284 ;;      Temps:          0       0       0       0       0       0       0       0       0       0       0       0       
      +0       0       0       0       0
  5285 ;;      Totals:         0       0       0       0       0       0       0       0       0       0       0       0       
      +0       0       0       0       0
  5286 ;;Total ram usage:        0 bytes
  5287 ;; Hardware stack levels used: 1
  5288 ;; This function calls:
  5289 ;;		Nothing
  5290 ;; This function is called by:
  5291 ;;		_I2C1_DO_RX_NACK_STOP
  5292 ;;		_I2C1_DO_RX_NACK_RESTART
  5293 ;; This function uses a non-reentrant model
  5294 ;;
  5295                           
  5296                           	psect	text53
  5297   0020EE                     __ptext53:
  5298                           	callstack 0
  5299   0020EE                     _I2C1_MasterSendNack:
  5300                           	callstack 23
  5301   0020EE                     
  5302                           ;mcc_generated_files/i2c1_master.c: 725:     I2C1CON1bits.ACKDT = 1;
  5303   0020EE  013D               	movlb	61	; () banked
  5304   0020F0  8D74               	bsf	116,6,b	;volatile
  5305   0020F2                     
  5306                           ; BSR set to: 61
  5307   0020F2  0012               	return		;funcret
  5308   0020F4                     __end_of_I2C1_MasterSendNack:
  5309                           	callstack 0
  5310                           
  5311 ;; *************** function _I2C1_MasterSendAck *****************
  5312 ;; Defined at:
  5313 ;;		line 718 in file "mcc_generated_files/i2c1_master.c"
  5314 ;; Parameters:    Size  Location     Type
  5315 ;;		None
  5316 ;; Auto vars:     Size  Location     Type
  5317 ;;		None
  5318 ;; Return value:  Size  Location     Type
  5319 ;;                  1    wreg      void 
  5320 ;; Registers used:
  5321 ;;		None
  5322 ;; Tracked objects:
  5323 ;;		On entry : 0/0
  5324 ;;		On exit  : 0/0
  5325 ;;		Unchanged: 0/0
  5326 ;; Data sizes:     COMRAM   BANK0   BANK1   BANK2   BANK3   BANK4   BANK5   BANK6   BANK7   BANK8   BANK9  BANK10  BANK1
      +1  BANK12  BANK13  BANK14  BANK15
  5327 ;;      Params:         0       0       0       0       0       0       0       0       0       0       0       0       
      +0       0       0       0       0
  5328 ;;      Locals:         0       0       0       0       0       0       0       0       0       0       0       0       
      +0       0       0       0       0
  5329 ;;      Temps:          0       0       0       0       0       0       0       0       0       0       0       0       
      +0       0       0       0       0
  5330 ;;      Totals:         0       0       0       0       0       0       0       0       0       0       0       0       
      +0       0       0       0       0
  5331 ;;Total ram usage:        0 bytes
  5332 ;; Hardware stack levels used: 1
  5333 ;; This function calls:
  5334 ;;		Nothing
  5335 ;; This function is called by:
  5336 ;;		_I2C1_DO_RX_ACK
  5337 ;;		_I2C1_DO_TX_ACK
  5338 ;; This function uses a non-reentrant model
  5339 ;;
  5340                           
  5341                           	psect	text54
  5342   0020F4                     __ptext54:
  5343                           	callstack 0
  5344   0020F4                     _I2C1_MasterSendAck:
  5345                           	callstack 23
  5346   0020F4                     
  5347                           ;mcc_generated_files/i2c1_master.c: 720:     I2C1CON1bits.ACKDT = 0;
  5348   0020F4  013D               	movlb	61	; () banked
  5349   0020F6  9D74               	bcf	116,6,b	;volatile
  5350   0020F8                     
  5351                           ; BSR set to: 61
  5352   0020F8  0012               	return		;funcret
  5353   0020FA                     __end_of_I2C1_MasterSendAck:
  5354                           	callstack 0
  5355                           
  5356 ;; *************** function _I2C1_MasterIsRxBufFull *****************
  5357 ;; Defined at:
  5358 ;;		line 735 in file "mcc_generated_files/i2c1_master.c"
  5359 ;; Parameters:    Size  Location     Type
  5360 ;;		None
  5361 ;; Auto vars:     Size  Location     Type
  5362 ;;		None
  5363 ;; Return value:  Size  Location     Type
  5364 ;;                  1    wreg      _Bool 
  5365 ;; Registers used:
  5366 ;;		wreg
  5367 ;; Tracked objects:
  5368 ;;		On entry : 0/0
  5369 ;;		On exit  : 0/0
  5370 ;;		Unchanged: 0/0
  5371 ;; Data sizes:     COMRAM   BANK0   BANK1   BANK2   BANK3   BANK4   BANK5   BANK6   BANK7   BANK8   BANK9  BANK10  BANK1
      +1  BANK12  BANK13  BANK14  BANK15
  5372 ;;      Params:         0       0       0       0       0       0       0       0       0       0       0       0       
      +0       0       0       0       0
  5373 ;;      Locals:         0       0       0       0       0       0       0       0       0       0       0       0       
      +0       0       0       0       0
  5374 ;;      Temps:          0       0       0       0       0       0       0       0       0       0       0       0       
      +0       0       0       0       0
  5375 ;;      Totals:         0       0       0       0       0       0       0       0       0       0       0       0       
      +0       0       0       0       0
  5376 ;;Total ram usage:        0 bytes
  5377 ;; Hardware stack levels used: 1
  5378 ;; This function calls:
  5379 ;;		Nothing
  5380 ;; This function is called by:
  5381 ;;		_I2C1_DO_RX
  5382 ;; This function uses a non-reentrant model
  5383 ;;
  5384                           
  5385                           	psect	text55
  5386   001FB4                     __ptext55:
  5387                           	callstack 0
  5388   001FB4                     _I2C1_MasterIsRxBufFull:
  5389                           	callstack 23
  5390   001FB4                     
  5391                           ;mcc_generated_files/i2c1_master.c: 737:     return I2C1STAT1bits.RXBF;
  5392   001FB4  013D               	movlb	61	; () banked
  5393   001FB6  B178               	btfsc	120,0,b	;volatile
  5394   001FB8  EFE0  F00F         	goto	u941
  5395   001FBC  EFE3  F00F         	goto	u940
  5396   001FC0                     u941:
  5397   001FC0  0E01               	movlw	1
  5398   001FC2  EFE4  F00F         	goto	u946
  5399   001FC6                     u940:
  5400   001FC6  0E00               	movlw	0
  5401   001FC8                     u946:
  5402   001FC8                     
  5403                           ; BSR set to: 61
  5404   001FC8  0012               	return		;funcret
  5405   001FCA                     __end_of_I2C1_MasterIsRxBufFull:
  5406                           	callstack 0
  5407                           
  5408 ;; *************** function _I2C1_MasterGetRxData *****************
  5409 ;; Defined at:
  5410 ;;		line 665 in file "mcc_generated_files/i2c1_master.c"
  5411 ;; Parameters:    Size  Location     Type
  5412 ;;		None
  5413 ;; Auto vars:     Size  Location     Type
  5414 ;;		None
  5415 ;; Return value:  Size  Location     Type
  5416 ;;                  1    wreg      unsigned char 
  5417 ;; Registers used:
  5418 ;;		wreg, status,2
  5419 ;; Tracked objects:
  5420 ;;		On entry : 0/0
  5421 ;;		On exit  : 0/0
  5422 ;;		Unchanged: 0/0
  5423 ;; Data sizes:     COMRAM   BANK0   BANK1   BANK2   BANK3   BANK4   BANK5   BANK6   BANK7   BANK8   BANK9  BANK10  BANK1
      +1  BANK12  BANK13  BANK14  BANK15
  5424 ;;      Params:         0       0       0       0       0       0       0       0       0       0       0       0       
      +0       0       0       0       0
  5425 ;;      Locals:         0       0       0       0       0       0       0       0       0       0       0       0       
      +0       0       0       0       0
  5426 ;;      Temps:          0       0       0       0       0       0       0       0       0       0       0       0       
      +0       0       0       0       0
  5427 ;;      Totals:         0       0       0       0       0       0       0       0       0       0       0       0       
      +0       0       0       0       0
  5428 ;;Total ram usage:        0 bytes
  5429 ;; Hardware stack levels used: 1
  5430 ;; This function calls:
  5431 ;;		Nothing
  5432 ;; This function is called by:
  5433 ;;		_I2C1_DO_RX
  5434 ;; This function uses a non-reentrant model
  5435 ;;
  5436                           
  5437                           	psect	text56
  5438   0020FA                     __ptext56:
  5439                           	callstack 0
  5440   0020FA                     _I2C1_MasterGetRxData:
  5441                           	callstack 23
  5442   0020FA                     
  5443                           ;mcc_generated_files/i2c1_master.c: 667:     return I2C1RXB;
  5444   0020FA  013D               	movlb	61	; () banked
  5445   0020FC  516A               	movf	106,w,b	;volatile
  5446   0020FE                     
  5447                           ; BSR set to: 61
  5448   0020FE  0012               	return		;funcret
  5449   002100                     __end_of_I2C1_MasterGetRxData:
  5450                           	callstack 0
  5451                           
  5452 ;; *************** function _I2C1_MasterSendTxData *****************
  5453 ;; Defined at:
  5454 ;;		line 670 in file "mcc_generated_files/i2c1_master.c"
  5455 ;; Parameters:    Size  Location     Type
  5456 ;;  data            1    wreg     unsigned char 
  5457 ;; Auto vars:     Size  Location     Type
  5458 ;;  data            1    0[COMRAM] unsigned char 
  5459 ;; Return value:  Size  Location     Type
  5460 ;;                  1    wreg      void 
  5461 ;; Registers used:
  5462 ;;		wreg
  5463 ;; Tracked objects:
  5464 ;;		On entry : 0/0
  5465 ;;		On exit  : 0/0
  5466 ;;		Unchanged: 0/0
  5467 ;; Data sizes:     COMRAM   BANK0   BANK1   BANK2   BANK3   BANK4   BANK5   BANK6   BANK7   BANK8   BANK9  BANK10  BANK1
      +1  BANK12  BANK13  BANK14  BANK15
  5468 ;;      Params:         0       0       0       0       0       0       0       0       0       0       0       0       
      +0       0       0       0       0
  5469 ;;      Locals:         1       0       0       0       0       0       0       0       0       0       0       0       
      +0       0       0       0       0
  5470 ;;      Temps:          0       0       0       0       0       0       0       0       0       0       0       0       
      +0       0       0       0       0
  5471 ;;      Totals:         1       0       0       0       0       0       0       0       0       0       0       0       
      +0       0       0       0       0
  5472 ;;Total ram usage:        1 bytes
  5473 ;; Hardware stack levels used: 1
  5474 ;; This function calls:
  5475 ;;		Nothing
  5476 ;; This function is called by:
  5477 ;;		_I2C1_DO_SEND_ADR_READ
  5478 ;;		_I2C1_DO_SEND_ADR_WRITE
  5479 ;;		_I2C1_DO_TX
  5480 ;;		_I2C1_DO_SEND_STOP
  5481 ;; This function uses a non-reentrant model
  5482 ;;
  5483                           
  5484                           	psect	text57
  5485   002094                     __ptext57:
  5486                           	callstack 0
  5487   002094                     _I2C1_MasterSendTxData:
  5488                           	callstack 23
  5489                           
  5490                           ; BSR set to: 61
  5491                           ;incstack = 0
  5492                           ;I2C1_MasterSendTxData@data stored from wreg
  5493   002094  6E01               	movwf	I2C1_MasterSendTxData@data^0,c
  5494   002096                     
  5495                           ;mcc_generated_files/i2c1_master.c: 670: static __attribute__((inline)) void I2C1_Master
      +                          SendTxData(uint8_t data);mcc_generated_files/i2c1_master.c: 671: {;mcc_generated_files/i
      +                          2c1_master.c: 672:     I2C1TXB = data;
  5496   002096  0060  F007  FD6B   	movff	I2C1_MasterSendTxData@data,15723	;volatile
  5497   00209C  0012               	return		;funcret
  5498   00209E                     __end_of_I2C1_MasterSendTxData:
  5499                           	callstack 0
  5500                           
  5501 ;; *************** function _I2C1_MasterSetCounter *****************
  5502 ;; Defined at:
  5503 ;;		line 680 in file "mcc_generated_files/i2c1_master.c"
  5504 ;; Parameters:    Size  Location     Type
  5505 ;;  counter         1    wreg     unsigned char 
  5506 ;; Auto vars:     Size  Location     Type
  5507 ;;  counter         1    0[COMRAM] unsigned char 
  5508 ;; Return value:  Size  Location     Type
  5509 ;;                  1    wreg      void 
  5510 ;; Registers used:
  5511 ;;		wreg
  5512 ;; Tracked objects:
  5513 ;;		On entry : 0/0
  5514 ;;		On exit  : 0/0
  5515 ;;		Unchanged: 0/0
  5516 ;; Data sizes:     COMRAM   BANK0   BANK1   BANK2   BANK3   BANK4   BANK5   BANK6   BANK7   BANK8   BANK9  BANK10  BANK1
      +1  BANK12  BANK13  BANK14  BANK15
  5517 ;;      Params:         0       0       0       0       0       0       0       0       0       0       0       0       
      +0       0       0       0       0
  5518 ;;      Locals:         1       0       0       0       0       0       0       0       0       0       0       0       
      +0       0       0       0       0
  5519 ;;      Temps:          0       0       0       0       0       0       0       0       0       0       0       0       
      +0       0       0       0       0
  5520 ;;      Totals:         1       0       0       0       0       0       0       0       0       0       0       0       
      +0       0       0       0       0
  5521 ;;Total ram usage:        1 bytes
  5522 ;; Hardware stack levels used: 1
  5523 ;; This function calls:
  5524 ;;		Nothing
  5525 ;; This function is called by:
  5526 ;;		_I2C1_MasterOperation
  5527 ;;		_I2C1_DO_TX_EMPTY
  5528 ;;		_I2C1_DO_RX_EMPTY
  5529 ;;		_I2C1_DO_SEND_RESTART_READ
  5530 ;;		_I2C1_DO_SEND_STOP
  5531 ;; This function uses a non-reentrant model
  5532 ;;
  5533                           
  5534                           	psect	text58
  5535   00209E                     __ptext58:
  5536                           	callstack 0
  5537   00209E                     _I2C1_MasterSetCounter:
  5538                           	callstack 23
  5539                           
  5540                           ;incstack = 0
  5541                           ;I2C1_MasterSetCounter@counter stored from wreg
  5542   00209E  6E01               	movwf	I2C1_MasterSetCounter@counter^0,c
  5543   0020A0                     
  5544                           ;mcc_generated_files/i2c1_master.c: 680: static __attribute__((inline)) void I2C1_Master
      +                          SetCounter(uint8_t counter);mcc_generated_files/i2c1_master.c: 681: {;mcc_generated_file
      +                          s/i2c1_master.c: 682:     I2C1CNT = counter;
  5545   0020A0  0060  F007  FD6C   	movff	I2C1_MasterSetCounter@counter,15724	;volatile
  5546   0020A6  0012               	return		;funcret
  5547   0020A8                     __end_of_I2C1_MasterSetCounter:
  5548                           	callstack 0
  5549                           
  5550 ;; *************** function _I2C1_MasterEnableRestart *****************
  5551 ;; Defined at:
  5552 ;;		line 695 in file "mcc_generated_files/i2c1_master.c"
  5553 ;; Parameters:    Size  Location     Type
  5554 ;;		None
  5555 ;; Auto vars:     Size  Location     Type
  5556 ;;		None
  5557 ;; Return value:  Size  Location     Type
  5558 ;;                  1    wreg      void 
  5559 ;; Registers used:
  5560 ;;		None
  5561 ;; Tracked objects:
  5562 ;;		On entry : 0/0
  5563 ;;		On exit  : 0/0
  5564 ;;		Unchanged: 0/0
  5565 ;; Data sizes:     COMRAM   BANK0   BANK1   BANK2   BANK3   BANK4   BANK5   BANK6   BANK7   BANK8   BANK9  BANK10  BANK1
      +1  BANK12  BANK13  BANK14  BANK15
  5566 ;;      Params:         0       0       0       0       0       0       0       0       0       0       0       0       
      +0       0       0       0       0
  5567 ;;      Locals:         0       0       0       0       0       0       0       0       0       0       0       0       
      +0       0       0       0       0
  5568 ;;      Temps:          0       0       0       0       0       0       0       0       0       0       0       0       
      +0       0       0       0       0
  5569 ;;      Totals:         0       0       0       0       0       0       0       0       0       0       0       0       
      +0       0       0       0       0
  5570 ;;Total ram usage:        0 bytes
  5571 ;; Hardware stack levels used: 1
  5572 ;; This function calls:
  5573 ;;		Nothing
  5574 ;; This function is called by:
  5575 ;;		_I2C1_DO_TX_EMPTY
  5576 ;;		_I2C1_DO_RX_EMPTY
  5577 ;; This function uses a non-reentrant model
  5578 ;;
  5579                           
  5580                           	psect	text59
  5581   002100                     __ptext59:
  5582                           	callstack 0
  5583   002100                     _I2C1_MasterEnableRestart:
  5584                           	callstack 23
  5585   002100                     
  5586                           ;mcc_generated_files/i2c1_master.c: 698:     I2C1CON0bits.RSEN = 1;
  5587   002100  013D               	movlb	61	; () banked
  5588   002102  8D73               	bsf	115,6,b	;volatile
  5589   002104                     
  5590                           ; BSR set to: 61
  5591   002104  0012               	return		;funcret
  5592   002106                     __end_of_I2C1_MasterEnableRestart:
  5593                           	callstack 0
  5594                           
  5595 ;; *************** function _I2C1_MasterDisableRestart *****************
  5596 ;; Defined at:
  5597 ;;		line 701 in file "mcc_generated_files/i2c1_master.c"
  5598 ;; Parameters:    Size  Location     Type
  5599 ;;		None
  5600 ;; Auto vars:     Size  Location     Type
  5601 ;;		None
  5602 ;; Return value:  Size  Location     Type
  5603 ;;                  1    wreg      void 
  5604 ;; Registers used:
  5605 ;;		None
  5606 ;; Tracked objects:
  5607 ;;		On entry : 0/0
  5608 ;;		On exit  : 0/0
  5609 ;;		Unchanged: 0/0
  5610 ;; Data sizes:     COMRAM   BANK0   BANK1   BANK2   BANK3   BANK4   BANK5   BANK6   BANK7   BANK8   BANK9  BANK10  BANK1
      +1  BANK12  BANK13  BANK14  BANK15
  5611 ;;      Params:         0       0       0       0       0       0       0       0       0       0       0       0       
      +0       0       0       0       0
  5612 ;;      Locals:         0       0       0       0       0       0       0       0       0       0       0       0       
      +0       0       0       0       0
  5613 ;;      Temps:          0       0       0       0       0       0       0       0       0       0       0       0       
      +0       0       0       0       0
  5614 ;;      Totals:         0       0       0       0       0       0       0       0       0       0       0       0       
      +0       0       0       0       0
  5615 ;;Total ram usage:        0 bytes
  5616 ;; Hardware stack levels used: 1
  5617 ;; This function calls:
  5618 ;;		Nothing
  5619 ;; This function is called by:
  5620 ;;		_I2C1_DO_TX_EMPTY
  5621 ;;		_I2C1_DO_RX_EMPTY
  5622 ;; This function uses a non-reentrant model
  5623 ;;
  5624                           
  5625                           	psect	text60
  5626   002106                     __ptext60:
  5627                           	callstack 0
  5628   002106                     _I2C1_MasterDisableRestart:
  5629                           	callstack 23
  5630   002106                     
  5631                           ;mcc_generated_files/i2c1_master.c: 704:     I2C1CON0bits.RSEN = 0;
  5632   002106  013D               	movlb	61	; () banked
  5633   002108  9D73               	bcf	115,6,b	;volatile
  5634   00210A                     
  5635                           ; BSR set to: 61
  5636   00210A  0012               	return		;funcret
  5637   00210C                     __end_of_I2C1_MasterDisableRestart:
  5638                           	callstack 0
  5639                           
  5640 ;; *************** function _I2C1_MasterResetBus *****************
  5641 ;; Defined at:
  5642 ;;		line 685 in file "mcc_generated_files/i2c1_master.c"
  5643 ;; Parameters:    Size  Location     Type
  5644 ;;		None
  5645 ;; Auto vars:     Size  Location     Type
  5646 ;;		None
  5647 ;; Return value:  Size  Location     Type
  5648 ;;                  1    wreg      void 
  5649 ;; Registers used:
  5650 ;;		None
  5651 ;; Tracked objects:
  5652 ;;		On entry : 0/0
  5653 ;;		On exit  : 0/0
  5654 ;;		Unchanged: 0/0
  5655 ;; Data sizes:     COMRAM   BANK0   BANK1   BANK2   BANK3   BANK4   BANK5   BANK6   BANK7   BANK8   BANK9  BANK10  BANK1
      +1  BANK12  BANK13  BANK14  BANK15
  5656 ;;      Params:         0       0       0       0       0       0       0       0       0       0       0       0       
      +0       0       0       0       0
  5657 ;;      Locals:         0       0       0       0       0       0       0       0       0       0       0       0       
      +0       0       0       0       0
  5658 ;;      Temps:          0       0       0       0       0       0       0       0       0       0       0       0       
      +0       0       0       0       0
  5659 ;;      Totals:         0       0       0       0       0       0       0       0       0       0       0       0       
      +0       0       0       0       0
  5660 ;;Total ram usage:        0 bytes
  5661 ;; Hardware stack levels used: 1
  5662 ;; This function calls:
  5663 ;;		Nothing
  5664 ;; This function is called by:
  5665 ;;		_I2C1_DO_RESET
  5666 ;;		_I2C1_DO_BUS_ERROR
  5667 ;; This function uses a non-reentrant model
  5668 ;;
  5669                           
  5670                           	psect	text61
  5671   0020A8                     __ptext61:
  5672                           	callstack 0
  5673   0020A8                     _I2C1_MasterResetBus:
  5674                           	callstack 23
  5675   0020A8                     
  5676                           ;mcc_generated_files/i2c1_master.c: 688:     I2C1CON0bits.EN = 0;
  5677   0020A8  013D               	movlb	61	; () banked
  5678   0020AA  9F73               	bcf	115,7,b	;volatile
  5679                           
  5680                           ;mcc_generated_files/i2c1_master.c: 690:     I2C1STAT1bits.CLRBF = 1;
  5681   0020AC  8578               	bsf	120,2,b	;volatile
  5682                           
  5683                           ;mcc_generated_files/i2c1_master.c: 692:     I2C1CON0bits.EN = 1;
  5684   0020AE  8F73               	bsf	115,7,b	;volatile
  5685   0020B0                     
  5686                           ; BSR set to: 61
  5687   0020B0  0012               	return		;funcret
  5688   0020B2                     __end_of_I2C1_MasterResetBus:
  5689                           	callstack 0
  5690                           
  5691 ;; *************** function _I2C1_CallbackReturnReset *****************
  5692 ;; Defined at:
  5693 ;;		line 614 in file "mcc_generated_files/i2c1_master.c"
  5694 ;; Parameters:    Size  Location     Type
  5695 ;;  funPtr          2    9[COMRAM] PTR void 
  5696 ;;		 -> I2C1_ReadDataBlock@bufferBlock(3), I2C1_Write2ByteRegister@data(2), I2C1_Write1ByteRegister@data(1), I2C1_Read2B
      +yteRegister@returnValue(2), 
  5697 ;;		 -> NULL(0), I2C1_Read1ByteRegister@returnValue(1), 
  5698 ;; Auto vars:     Size  Location     Type
  5699 ;;		None
  5700 ;; Return value:  Size  Location     Type
  5701 ;;                  1    wreg      enum E363
  5702 ;; Registers used:
  5703 ;;		wreg
  5704 ;; Tracked objects:
  5705 ;;		On entry : 0/0
  5706 ;;		On exit  : 0/0
  5707 ;;		Unchanged: 0/0
  5708 ;; Data sizes:     COMRAM   BANK0   BANK1   BANK2   BANK3   BANK4   BANK5   BANK6   BANK7   BANK8   BANK9  BANK10  BANK1
      +1  BANK12  BANK13  BANK14  BANK15
  5709 ;;      Params:         2       0       0       0       0       0       0       0       0       0       0       0       
      +0       0       0       0       0
  5710 ;;      Locals:         0       0       0       0       0       0       0       0       0       0       0       0       
      +0       0       0       0       0
  5711 ;;      Temps:          0       0       0       0       0       0       0       0       0       0       0       0       
      +0       0       0       0       0
  5712 ;;      Totals:         2       0       0       0       0       0       0       0       0       0       0       0       
      +0       0       0       0       0
  5713 ;;Total ram usage:        2 bytes
  5714 ;; Hardware stack levels used: 1
  5715 ;; This function calls:
  5716 ;;		Nothing
  5717 ;; This function is called by:
  5718 ;;		_I2C1_Open
  5719 ;;		_I2C1_DO_RX_EMPTY
  5720 ;;		_I2C1_DO_TX_EMPTY
  5721 ;;		_I2C1_DO_TX
  5722 ;;		_I2C1_DO_ADDRESS_NACK
  5723 ;;		_I2C1_DO_BUS_COLLISION
  5724 ;; This function uses a non-reentrant model
  5725 ;;
  5726                           
  5727                           	psect	text62
  5728   002126                     __ptext62:
  5729                           	callstack 0
  5730   002126                     _I2C1_CallbackReturnReset:
  5731                           	callstack 23
  5732   002126                     
  5733                           ;mcc_generated_files/i2c1_master.c: 614: i2c1_operations_t I2C1_CallbackReturnReset(void
      +                           *funPtr);mcc_generated_files/i2c1_master.c: 615: {;mcc_generated_files/i2c1_master.c: 6
      +                          16:     return I2C1_RESET_LINK;
  5734   002126  0E05               	movlw	5
  5735   002128  0012               	return		;funcret
  5736   00212A                     __end_of_I2C1_CallbackReturnReset:
  5737                           	callstack 0
  5738                           
  5739 ;; *************** function _I2C1_CallbackReturnStop *****************
  5740 ;; Defined at:
  5741 ;;		line 609 in file "mcc_generated_files/i2c1_master.c"
  5742 ;; Parameters:    Size  Location     Type
  5743 ;;  funPtr          2    9[COMRAM] PTR void 
  5744 ;;		 -> I2C1_ReadDataBlock@bufferBlock(3), I2C1_Write2ByteRegister@data(2), I2C1_Write1ByteRegister@data(1), I2C1_Read2B
      +yteRegister@returnValue(2), 
  5745 ;;		 -> NULL(0), I2C1_Read1ByteRegister@returnValue(1), 
  5746 ;; Auto vars:     Size  Location     Type
  5747 ;;		None
  5748 ;; Return value:  Size  Location     Type
  5749 ;;                  1    wreg      enum E363
  5750 ;; Registers used:
  5751 ;;		wreg
  5752 ;; Tracked objects:
  5753 ;;		On entry : 0/0
  5754 ;;		On exit  : 0/0
  5755 ;;		Unchanged: 0/0
  5756 ;; Data sizes:     COMRAM   BANK0   BANK1   BANK2   BANK3   BANK4   BANK5   BANK6   BANK7   BANK8   BANK9  BANK10  BANK1
      +1  BANK12  BANK13  BANK14  BANK15
  5757 ;;      Params:         2       0       0       0       0       0       0       0       0       0       0       0       
      +0       0       0       0       0
  5758 ;;      Locals:         0       0       0       0       0       0       0       0       0       0       0       0       
      +0       0       0       0       0
  5759 ;;      Temps:          0       0       0       0       0       0       0       0       0       0       0       0       
      +0       0       0       0       0
  5760 ;;      Totals:         2       0       0       0       0       0       0       0       0       0       0       0       
      +0       0       0       0       0
  5761 ;;Total ram usage:        2 bytes
  5762 ;; Hardware stack levels used: 1
  5763 ;; This function calls:
  5764 ;;		Nothing
  5765 ;; This function is called by:
  5766 ;;		_I2C1_Open
  5767 ;;		_I2C1_SetCallback
  5768 ;;		_I2C1_DO_RX_EMPTY
  5769 ;;		_I2C1_DO_TX_EMPTY
  5770 ;;		_I2C1_DO_TX
  5771 ;;		_I2C1_DO_ADDRESS_NACK
  5772 ;;		_I2C1_DO_BUS_COLLISION
  5773 ;; This function uses a non-reentrant model
  5774 ;;
  5775                           
  5776                           	psect	text63
  5777   00212A                     __ptext63:
  5778                           	callstack 0
  5779   00212A                     _I2C1_CallbackReturnStop:
  5780                           	callstack 23
  5781   00212A                     
  5782                           ;mcc_generated_files/i2c1_master.c: 609: i2c1_operations_t I2C1_CallbackReturnStop(void 
      +                          *funPtr);mcc_generated_files/i2c1_master.c: 610: {;mcc_generated_files/i2c1_master.c: 61
      +                          1:     return I2C1_STOP;
  5783   00212A  0E01               	movlw	1
  5784   00212C  0012               	return		;funcret
  5785   00212E                     __end_of_I2C1_CallbackReturnStop:
  5786                           	callstack 0
  5787                           
  5788 ;; *************** function _rdBlkRegCompleteHandler *****************
  5789 ;; Defined at:
  5790 ;;		line 170 in file "mcc_generated_files/examples/i2c1_master_example.c"
  5791 ;; Parameters:    Size  Location     Type
  5792 ;;  ptr             2    9[COMRAM] PTR void 
  5793 ;;		 -> I2C1_ReadDataBlock@bufferBlock(3), I2C1_Write2ByteRegister@data(2), I2C1_Write1ByteRegister@data(1), I2C1_Read2B
      +yteRegister@returnValue(2), 
  5794 ;;		 -> NULL(0), I2C1_Read1ByteRegister@returnValue(1), 
  5795 ;; Auto vars:     Size  Location     Type
  5796 ;;		None
  5797 ;; Return value:  Size  Location     Type
  5798 ;;                  1    wreg      enum E363
  5799 ;; Registers used:
  5800 ;;		wreg, fsr2l, fsr2h, status,2, status,0, prodl, prodh, cstack
  5801 ;; Tracked objects:
  5802 ;;		On entry : 0/0
  5803 ;;		On exit  : 0/0
  5804 ;;		Unchanged: 0/0
  5805 ;; Data sizes:     COMRAM   BANK0   BANK1   BANK2   BANK3   BANK4   BANK5   BANK6   BANK7   BANK8   BANK9  BANK10  BANK1
      +1  BANK12  BANK13  BANK14  BANK15
  5806 ;;      Params:         2       0       0       0       0       0       0       0       0       0       0       0       
      +0       0       0       0       0
  5807 ;;      Locals:         0       0       0       0       0       0       0       0       0       0       0       0       
      +0       0       0       0       0
  5808 ;;      Temps:          1       0       0       0       0       0       0       0       0       0       0       0       
      +0       0       0       0       0
  5809 ;;      Totals:         3       0       0       0       0       0       0       0       0       0       0       0       
      +0       0       0       0       0
  5810 ;;Total ram usage:        3 bytes
  5811 ;; Hardware stack levels used: 1
  5812 ;; Hardware stack levels required when called: 2
  5813 ;; This function calls:
  5814 ;;		_I2C1_SetBuffer
  5815 ;;		_I2C1_SetDataCompleteCallback
  5816 ;; This function is called by:
  5817 ;;		_I2C1_ReadDataBlock
  5818 ;;		_I2C1_DO_RX_EMPTY
  5819 ;;		_I2C1_DO_TX_EMPTY
  5820 ;;		_I2C1_DO_TX
  5821 ;;		_I2C1_DO_ADDRESS_NACK
  5822 ;;		_I2C1_DO_BUS_COLLISION
  5823 ;; This function uses a non-reentrant model
  5824 ;;
  5825                           
  5826                           	psect	text64
  5827   001B8C                     __ptext64:
  5828                           	callstack 0
  5829   001B8C                     _rdBlkRegCompleteHandler:
  5830                           	callstack 21
  5831   001B8C                     
  5832                           ;mcc_generated_files/examples/i2c1_master_example.c: 170: static i2c1_operations_t rdBlk
      +                          RegCompleteHandler(void *ptr);mcc_generated_files/examples/i2c1_master_example.c: 171: {
      +                          ;mcc_generated_files/examples/i2c1_master_example.c: 172:     I2C1_SetBuffer(((i2c1_buff
      +                          er_t *)ptr)->data,((i2c1_buffer_t*)ptr)->len);
  5833   001B8C  EE20 F002          	lfsr	2,2
  5834   001B90  500A               	movf	rdBlkRegCompleteHandler@ptr^0,w,c
  5835   001B92  26D9               	addwf	fsr2l,f,c
  5836   001B94  500B               	movf	(rdBlkRegCompleteHandler@ptr+1)^0,w,c
  5837   001B96  22DA               	addwfc	fsr2h,f,c
  5838   001B98  50DF               	movf	indf2,w,c
  5839   001B9A  6E0C               	movwf	??_rdBlkRegCompleteHandler^0,c
  5840   001B9C  C00C  F001         	movff	??_rdBlkRegCompleteHandler,I2C1_SetBuffer@buffer
  5841   001BA0  6A02               	clrf	(I2C1_SetBuffer@buffer+1)^0,c
  5842   001BA2  0060  F02B  FFD9   	movff	rdBlkRegCompleteHandler@ptr,fsr2l
  5843   001BA8  0060  F02F  FFDA   	movff	rdBlkRegCompleteHandler@ptr+1,fsr2h
  5844   001BAE  006F FF78  F003    	movff	postinc2,I2C1_SetBuffer@bufferSize
  5845   001BB4  006F FF74  F004    	movff	postdec2,I2C1_SetBuffer@bufferSize+1
  5846   001BBA  EC4B  F00F         	call	_I2C1_SetBuffer	;wreg free
  5847   001BBE                     
  5848                           ;mcc_generated_files/examples/i2c1_master_example.c: 173:     I2C1_SetDataCompleteCallba
      +                          ck(((void*)0),((void*)0));
  5849   001BBE  0E00               	movlw	0
  5850   001BC0  6E06               	movwf	I2C1_SetDataCompleteCallback@cb^0,c
  5851   001BC2  0E00               	movlw	0
  5852   001BC4  6E07               	movwf	(I2C1_SetDataCompleteCallback@cb+1)^0,c
  5853   001BC6  0E00               	movlw	0
  5854   001BC8  6E08               	movwf	I2C1_SetDataCompleteCallback@ptr^0,c
  5855   001BCA  0E00               	movlw	0
  5856   001BCC  6E09               	movwf	(I2C1_SetDataCompleteCallback@ptr+1)^0,c
  5857   001BCE  ECAD  F00F         	call	_I2C1_SetDataCompleteCallback	;wreg free
  5858   001BD2                     
  5859                           ;mcc_generated_files/examples/i2c1_master_example.c: 174:     return I2C1_RESTART_READ;
  5860   001BD2  0E02               	movlw	2
  5861   001BD4  0012               	return		;funcret
  5862   001BD6                     __end_of_rdBlkRegCompleteHandler:
  5863                           	callstack 0
  5864                           
  5865 ;; *************** function _wr1RegCompleteHandler *****************
  5866 ;; Defined at:
  5867 ;;		line 156 in file "mcc_generated_files/examples/i2c1_master_example.c"
  5868 ;; Parameters:    Size  Location     Type
  5869 ;;  ptr             2    9[COMRAM] PTR void 
  5870 ;;		 -> I2C1_ReadDataBlock@bufferBlock(3), I2C1_Write2ByteRegister@data(2), I2C1_Write1ByteRegister@data(1), I2C1_Read2B
      +yteRegister@returnValue(2), 
  5871 ;;		 -> NULL(0), I2C1_Read1ByteRegister@returnValue(1), 
  5872 ;; Auto vars:     Size  Location     Type
  5873 ;;		None
  5874 ;; Return value:  Size  Location     Type
  5875 ;;                  1    wreg      enum E363
  5876 ;; Registers used:
  5877 ;;		wreg, fsr2l, fsr2h, status,2, status,0, prodl, prodh, cstack
  5878 ;; Tracked objects:
  5879 ;;		On entry : 0/0
  5880 ;;		On exit  : 0/0
  5881 ;;		Unchanged: 0/0
  5882 ;; Data sizes:     COMRAM   BANK0   BANK1   BANK2   BANK3   BANK4   BANK5   BANK6   BANK7   BANK8   BANK9  BANK10  BANK1
      +1  BANK12  BANK13  BANK14  BANK15
  5883 ;;      Params:         2       0       0       0       0       0       0       0       0       0       0       0       
      +0       0       0       0       0
  5884 ;;      Locals:         0       0       0       0       0       0       0       0       0       0       0       0       
      +0       0       0       0       0
  5885 ;;      Temps:          0       0       0       0       0       0       0       0       0       0       0       0       
      +0       0       0       0       0
  5886 ;;      Totals:         2       0       0       0       0       0       0       0       0       0       0       0       
      +0       0       0       0       0
  5887 ;;Total ram usage:        2 bytes
  5888 ;; Hardware stack levels used: 1
  5889 ;; Hardware stack levels required when called: 2
  5890 ;; This function calls:
  5891 ;;		_I2C1_SetBuffer
  5892 ;;		_I2C1_SetDataCompleteCallback
  5893 ;; This function is called by:
  5894 ;;		_I2C1_Write1ByteRegister
  5895 ;;		_I2C1_DO_RX_EMPTY
  5896 ;;		_I2C1_DO_TX_EMPTY
  5897 ;;		_I2C1_DO_TX
  5898 ;;		_I2C1_DO_ADDRESS_NACK
  5899 ;;		_I2C1_DO_BUS_COLLISION
  5900 ;; This function uses a non-reentrant model
  5901 ;;
  5902                           
  5903                           	psect	text65
  5904   001D24                     __ptext65:
  5905                           	callstack 0
  5906   001D24                     _wr1RegCompleteHandler:
  5907                           	callstack 21
  5908   001D24                     
  5909                           ;mcc_generated_files/examples/i2c1_master_example.c: 156: static i2c1_operations_t wr1Re
      +                          gCompleteHandler(void *ptr);mcc_generated_files/examples/i2c1_master_example.c: 157: {;m
      +                          cc_generated_files/examples/i2c1_master_example.c: 158:     I2C1_SetBuffer(ptr,1);
  5910   001D24  C00A  F001         	movff	wr1RegCompleteHandler@ptr,I2C1_SetBuffer@buffer
  5911   001D28  C00B  F002         	movff	wr1RegCompleteHandler@ptr+1,I2C1_SetBuffer@buffer+1
  5912   001D2C  0E00               	movlw	0
  5913   001D2E  6E04               	movwf	(I2C1_SetBuffer@bufferSize+1)^0,c
  5914   001D30  0E01               	movlw	1
  5915   001D32  6E03               	movwf	I2C1_SetBuffer@bufferSize^0,c
  5916   001D34  EC4B  F00F         	call	_I2C1_SetBuffer	;wreg free
  5917   001D38                     
  5918                           ;mcc_generated_files/examples/i2c1_master_example.c: 159:     I2C1_SetDataCompleteCallba
      +                          ck(((void*)0),((void*)0));
  5919   001D38  0E00               	movlw	0
  5920   001D3A  6E06               	movwf	I2C1_SetDataCompleteCallback@cb^0,c
  5921   001D3C  0E00               	movlw	0
  5922   001D3E  6E07               	movwf	(I2C1_SetDataCompleteCallback@cb+1)^0,c
  5923   001D40  0E00               	movlw	0
  5924   001D42  6E08               	movwf	I2C1_SetDataCompleteCallback@ptr^0,c
  5925   001D44  0E00               	movlw	0
  5926   001D46  6E09               	movwf	(I2C1_SetDataCompleteCallback@ptr+1)^0,c
  5927   001D48  ECAD  F00F         	call	_I2C1_SetDataCompleteCallback	;wreg free
  5928   001D4C                     
  5929                           ;mcc_generated_files/examples/i2c1_master_example.c: 160:     return I2C1_CONTINUE;
  5930   001D4C  0E04               	movlw	4
  5931   001D4E  0012               	return		;funcret
  5932   001D50                     __end_of_wr1RegCompleteHandler:
  5933                           	callstack 0
  5934                           
  5935 ;; *************** function _rd2RegCompleteHandler *****************
  5936 ;; Defined at:
  5937 ;;		line 149 in file "mcc_generated_files/examples/i2c1_master_example.c"
  5938 ;; Parameters:    Size  Location     Type
  5939 ;;  ptr             2    9[COMRAM] PTR void 
  5940 ;;		 -> I2C1_ReadDataBlock@bufferBlock(3), I2C1_Write2ByteRegister@data(2), I2C1_Write1ByteRegister@data(1), I2C1_Read2B
      +yteRegister@returnValue(2), 
  5941 ;;		 -> NULL(0), I2C1_Read1ByteRegister@returnValue(1), 
  5942 ;; Auto vars:     Size  Location     Type
  5943 ;;		None
  5944 ;; Return value:  Size  Location     Type
  5945 ;;                  1    wreg      enum E363
  5946 ;; Registers used:
  5947 ;;		wreg, fsr2l, fsr2h, status,2, status,0, prodl, prodh, cstack
  5948 ;; Tracked objects:
  5949 ;;		On entry : 0/0
  5950 ;;		On exit  : 0/0
  5951 ;;		Unchanged: 0/0
  5952 ;; Data sizes:     COMRAM   BANK0   BANK1   BANK2   BANK3   BANK4   BANK5   BANK6   BANK7   BANK8   BANK9  BANK10  BANK1
      +1  BANK12  BANK13  BANK14  BANK15
  5953 ;;      Params:         2       0       0       0       0       0       0       0       0       0       0       0       
      +0       0       0       0       0
  5954 ;;      Locals:         0       0       0       0       0       0       0       0       0       0       0       0       
      +0       0       0       0       0
  5955 ;;      Temps:          0       0       0       0       0       0       0       0       0       0       0       0       
      +0       0       0       0       0
  5956 ;;      Totals:         2       0       0       0       0       0       0       0       0       0       0       0       
      +0       0       0       0       0
  5957 ;;Total ram usage:        2 bytes
  5958 ;; Hardware stack levels used: 1
  5959 ;; Hardware stack levels required when called: 2
  5960 ;; This function calls:
  5961 ;;		_I2C1_SetBuffer
  5962 ;;		_I2C1_SetDataCompleteCallback
  5963 ;; This function is called by:
  5964 ;;		_I2C1_Read2ByteRegister
  5965 ;;		_I2C1_DO_RX_EMPTY
  5966 ;;		_I2C1_DO_TX_EMPTY
  5967 ;;		_I2C1_DO_TX
  5968 ;;		_I2C1_DO_ADDRESS_NACK
  5969 ;;		_I2C1_DO_BUS_COLLISION
  5970 ;; This function uses a non-reentrant model
  5971 ;;
  5972                           
  5973                           	psect	text66
  5974   001D50                     __ptext66:
  5975                           	callstack 0
  5976   001D50                     _rd2RegCompleteHandler:
  5977                           	callstack 21
  5978   001D50                     
  5979                           ;mcc_generated_files/examples/i2c1_master_example.c: 149: static i2c1_operations_t rd2Re
      +                          gCompleteHandler(void *ptr);mcc_generated_files/examples/i2c1_master_example.c: 150: {;m
      +                          cc_generated_files/examples/i2c1_master_example.c: 151:     I2C1_SetBuffer(ptr,2);
  5980   001D50  C00A  F001         	movff	rd2RegCompleteHandler@ptr,I2C1_SetBuffer@buffer
  5981   001D54  C00B  F002         	movff	rd2RegCompleteHandler@ptr+1,I2C1_SetBuffer@buffer+1
  5982   001D58  0E00               	movlw	0
  5983   001D5A  6E04               	movwf	(I2C1_SetBuffer@bufferSize+1)^0,c
  5984   001D5C  0E02               	movlw	2
  5985   001D5E  6E03               	movwf	I2C1_SetBuffer@bufferSize^0,c
  5986   001D60  EC4B  F00F         	call	_I2C1_SetBuffer	;wreg free
  5987   001D64                     
  5988                           ;mcc_generated_files/examples/i2c1_master_example.c: 152:     I2C1_SetDataCompleteCallba
      +                          ck(((void*)0),((void*)0));
  5989   001D64  0E00               	movlw	0
  5990   001D66  6E06               	movwf	I2C1_SetDataCompleteCallback@cb^0,c
  5991   001D68  0E00               	movlw	0
  5992   001D6A  6E07               	movwf	(I2C1_SetDataCompleteCallback@cb+1)^0,c
  5993   001D6C  0E00               	movlw	0
  5994   001D6E  6E08               	movwf	I2C1_SetDataCompleteCallback@ptr^0,c
  5995   001D70  0E00               	movlw	0
  5996   001D72  6E09               	movwf	(I2C1_SetDataCompleteCallback@ptr+1)^0,c
  5997   001D74  ECAD  F00F         	call	_I2C1_SetDataCompleteCallback	;wreg free
  5998   001D78                     
  5999                           ;mcc_generated_files/examples/i2c1_master_example.c: 153:     return I2C1_RESTART_READ;
  6000   001D78  0E02               	movlw	2
  6001   001D7A  0012               	return		;funcret
  6002   001D7C                     __end_of_rd2RegCompleteHandler:
  6003                           	callstack 0
  6004                           
  6005 ;; *************** function _rd1RegCompleteHandler *****************
  6006 ;; Defined at:
  6007 ;;		line 142 in file "mcc_generated_files/examples/i2c1_master_example.c"
  6008 ;; Parameters:    Size  Location     Type
  6009 ;;  ptr             2    9[COMRAM] PTR void 
  6010 ;;		 -> I2C1_ReadDataBlock@bufferBlock(3), I2C1_Write2ByteRegister@data(2), I2C1_Write1ByteRegister@data(1), I2C1_Read2B
      +yteRegister@returnValue(2), 
  6011 ;;		 -> NULL(0), I2C1_Read1ByteRegister@returnValue(1), 
  6012 ;; Auto vars:     Size  Location     Type
  6013 ;;		None
  6014 ;; Return value:  Size  Location     Type
  6015 ;;                  1    wreg      enum E363
  6016 ;; Registers used:
  6017 ;;		wreg, fsr2l, fsr2h, status,2, status,0, prodl, prodh, cstack
  6018 ;; Tracked objects:
  6019 ;;		On entry : 0/0
  6020 ;;		On exit  : 0/0
  6021 ;;		Unchanged: 0/0
  6022 ;; Data sizes:     COMRAM   BANK0   BANK1   BANK2   BANK3   BANK4   BANK5   BANK6   BANK7   BANK8   BANK9  BANK10  BANK1
      +1  BANK12  BANK13  BANK14  BANK15
  6023 ;;      Params:         2       0       0       0       0       0       0       0       0       0       0       0       
      +0       0       0       0       0
  6024 ;;      Locals:         0       0       0       0       0       0       0       0       0       0       0       0       
      +0       0       0       0       0
  6025 ;;      Temps:          0       0       0       0       0       0       0       0       0       0       0       0       
      +0       0       0       0       0
  6026 ;;      Totals:         2       0       0       0       0       0       0       0       0       0       0       0       
      +0       0       0       0       0
  6027 ;;Total ram usage:        2 bytes
  6028 ;; Hardware stack levels used: 1
  6029 ;; Hardware stack levels required when called: 2
  6030 ;; This function calls:
  6031 ;;		_I2C1_SetBuffer
  6032 ;;		_I2C1_SetDataCompleteCallback
  6033 ;; This function is called by:
  6034 ;;		_I2C1_Read1ByteRegister
  6035 ;;		_I2C1_DO_RX_EMPTY
  6036 ;;		_I2C1_DO_TX_EMPTY
  6037 ;;		_I2C1_DO_TX
  6038 ;;		_I2C1_DO_ADDRESS_NACK
  6039 ;;		_I2C1_DO_BUS_COLLISION
  6040 ;; This function uses a non-reentrant model
  6041 ;;
  6042                           
  6043                           	psect	text67
  6044   001D7C                     __ptext67:
  6045                           	callstack 0
  6046   001D7C                     _rd1RegCompleteHandler:
  6047                           	callstack 21
  6048   001D7C                     
  6049                           ;mcc_generated_files/examples/i2c1_master_example.c: 142: static i2c1_operations_t rd1Re
      +                          gCompleteHandler(void *ptr);mcc_generated_files/examples/i2c1_master_example.c: 143: {;m
      +                          cc_generated_files/examples/i2c1_master_example.c: 144:     I2C1_SetBuffer(ptr,1);
  6050   001D7C  C00A  F001         	movff	rd1RegCompleteHandler@ptr,I2C1_SetBuffer@buffer
  6051   001D80  C00B  F002         	movff	rd1RegCompleteHandler@ptr+1,I2C1_SetBuffer@buffer+1
  6052   001D84  0E00               	movlw	0
  6053   001D86  6E04               	movwf	(I2C1_SetBuffer@bufferSize+1)^0,c
  6054   001D88  0E01               	movlw	1
  6055   001D8A  6E03               	movwf	I2C1_SetBuffer@bufferSize^0,c
  6056   001D8C  EC4B  F00F         	call	_I2C1_SetBuffer	;wreg free
  6057   001D90                     
  6058                           ;mcc_generated_files/examples/i2c1_master_example.c: 145:     I2C1_SetDataCompleteCallba
      +                          ck(((void*)0),((void*)0));
  6059   001D90  0E00               	movlw	0
  6060   001D92  6E06               	movwf	I2C1_SetDataCompleteCallback@cb^0,c
  6061   001D94  0E00               	movlw	0
  6062   001D96  6E07               	movwf	(I2C1_SetDataCompleteCallback@cb+1)^0,c
  6063   001D98  0E00               	movlw	0
  6064   001D9A  6E08               	movwf	I2C1_SetDataCompleteCallback@ptr^0,c
  6065   001D9C  0E00               	movlw	0
  6066   001D9E  6E09               	movwf	(I2C1_SetDataCompleteCallback@ptr+1)^0,c
  6067   001DA0  ECAD  F00F         	call	_I2C1_SetDataCompleteCallback	;wreg free
  6068   001DA4                     
  6069                           ;mcc_generated_files/examples/i2c1_master_example.c: 146:     return I2C1_RESTART_READ;
  6070   001DA4  0E02               	movlw	2
  6071   001DA6  0012               	return		;funcret
  6072   001DA8                     __end_of_rd1RegCompleteHandler:
  6073                           	callstack 0
  6074                           
  6075 ;; *************** function _wr2RegCompleteHandler *****************
  6076 ;; Defined at:
  6077 ;;		line 163 in file "mcc_generated_files/examples/i2c1_master_example.c"
  6078 ;; Parameters:    Size  Location     Type
  6079 ;;  ptr             2    9[COMRAM] PTR void 
  6080 ;;		 -> I2C1_ReadDataBlock@bufferBlock(3), I2C1_Write2ByteRegister@data(2), I2C1_Write1ByteRegister@data(1), I2C1_Read2B
      +yteRegister@returnValue(2), 
  6081 ;;		 -> NULL(0), I2C1_Read1ByteRegister@returnValue(1), 
  6082 ;; Auto vars:     Size  Location     Type
  6083 ;;		None
  6084 ;; Return value:  Size  Location     Type
  6085 ;;                  1    wreg      enum E363
  6086 ;; Registers used:
  6087 ;;		wreg, fsr2l, fsr2h, status,2, status,0, prodl, prodh, cstack
  6088 ;; Tracked objects:
  6089 ;;		On entry : 0/0
  6090 ;;		On exit  : 0/0
  6091 ;;		Unchanged: 0/0
  6092 ;; Data sizes:     COMRAM   BANK0   BANK1   BANK2   BANK3   BANK4   BANK5   BANK6   BANK7   BANK8   BANK9  BANK10  BANK1
      +1  BANK12  BANK13  BANK14  BANK15
  6093 ;;      Params:         2       0       0       0       0       0       0       0       0       0       0       0       
      +0       0       0       0       0
  6094 ;;      Locals:         0       0       0       0       0       0       0       0       0       0       0       0       
      +0       0       0       0       0
  6095 ;;      Temps:          0       0       0       0       0       0       0       0       0       0       0       0       
      +0       0       0       0       0
  6096 ;;      Totals:         2       0       0       0       0       0       0       0       0       0       0       0       
      +0       0       0       0       0
  6097 ;;Total ram usage:        2 bytes
  6098 ;; Hardware stack levels used: 1
  6099 ;; Hardware stack levels required when called: 2
  6100 ;; This function calls:
  6101 ;;		_I2C1_SetBuffer
  6102 ;;		_I2C1_SetDataCompleteCallback
  6103 ;; This function is called by:
  6104 ;;		_I2C1_Write2ByteRegister
  6105 ;;		_I2C1_DO_RX_EMPTY
  6106 ;;		_I2C1_DO_TX_EMPTY
  6107 ;;		_I2C1_DO_TX
  6108 ;;		_I2C1_DO_ADDRESS_NACK
  6109 ;;		_I2C1_DO_BUS_COLLISION
  6110 ;; This function uses a non-reentrant model
  6111 ;;
  6112                           
  6113                           	psect	text68
  6114   001DA8                     __ptext68:
  6115                           	callstack 0
  6116   001DA8                     _wr2RegCompleteHandler:
  6117                           	callstack 21
  6118   001DA8                     
  6119                           ;mcc_generated_files/examples/i2c1_master_example.c: 163: static i2c1_operations_t wr2Re
      +                          gCompleteHandler(void *ptr);mcc_generated_files/examples/i2c1_master_example.c: 164: {;m
      +                          cc_generated_files/examples/i2c1_master_example.c: 165:     I2C1_SetBuffer(ptr,2);
  6120   001DA8  C00A  F001         	movff	wr2RegCompleteHandler@ptr,I2C1_SetBuffer@buffer
  6121   001DAC  C00B  F002         	movff	wr2RegCompleteHandler@ptr+1,I2C1_SetBuffer@buffer+1
  6122   001DB0  0E00               	movlw	0
  6123   001DB2  6E04               	movwf	(I2C1_SetBuffer@bufferSize+1)^0,c
  6124   001DB4  0E02               	movlw	2
  6125   001DB6  6E03               	movwf	I2C1_SetBuffer@bufferSize^0,c
  6126   001DB8  EC4B  F00F         	call	_I2C1_SetBuffer	;wreg free
  6127   001DBC                     
  6128                           ;mcc_generated_files/examples/i2c1_master_example.c: 166:     I2C1_SetDataCompleteCallba
      +                          ck(((void*)0),((void*)0));
  6129   001DBC  0E00               	movlw	0
  6130   001DBE  6E06               	movwf	I2C1_SetDataCompleteCallback@cb^0,c
  6131   001DC0  0E00               	movlw	0
  6132   001DC2  6E07               	movwf	(I2C1_SetDataCompleteCallback@cb+1)^0,c
  6133   001DC4  0E00               	movlw	0
  6134   001DC6  6E08               	movwf	I2C1_SetDataCompleteCallback@ptr^0,c
  6135   001DC8  0E00               	movlw	0
  6136   001DCA  6E09               	movwf	(I2C1_SetDataCompleteCallback@ptr+1)^0,c
  6137   001DCC  ECAD  F00F         	call	_I2C1_SetDataCompleteCallback	;wreg free
  6138   001DD0                     
  6139                           ;mcc_generated_files/examples/i2c1_master_example.c: 167:     return I2C1_CONTINUE;
  6140   001DD0  0E04               	movlw	4
  6141   001DD2  0012               	return		;funcret
  6142   001DD4                     __end_of_wr2RegCompleteHandler:
  6143                           	callstack 0
  6144                           
  6145 ;; *************** function _I2C1_SetDataCompleteCallback *****************
  6146 ;; Defined at:
  6147 ;;		line 303 in file "mcc_generated_files/i2c1_master.c"
  6148 ;; Parameters:    Size  Location     Type
  6149 ;;  cb              2    5[COMRAM] PTR FTN(PTR void ,)enum 
  6150 ;;		 -> NULL(1), rdBlkRegCompleteHandler(1), wr2RegCompleteHandler(1), wr1RegCompleteHandler(1), 
  6151 ;;		 -> rd2RegCompleteHandler(1), rd1RegCompleteHandler(1), 
  6152 ;;  ptr             2    7[COMRAM] PTR void 
  6153 ;;		 -> I2C1_ReadDataBlock@bufferBlock(3), I2C1_Write2ByteRegister@data(2), I2C1_Write1ByteRegister@data(1), I2C1_Read2B
      +yteRegister@returnValue(2), 
  6154 ;;		 -> NULL(0), I2C1_Read1ByteRegister@returnValue(1), 
  6155 ;; Auto vars:     Size  Location     Type
  6156 ;;		None
  6157 ;; Return value:  Size  Location     Type
  6158 ;;                  1    wreg      void 
  6159 ;; Registers used:
  6160 ;;		wreg, fsr2l, fsr2h, status,2, status,0, prodl, prodh, cstack
  6161 ;; Tracked objects:
  6162 ;;		On entry : 0/0
  6163 ;;		On exit  : 0/0
  6164 ;;		Unchanged: 0/0
  6165 ;; Data sizes:     COMRAM   BANK0   BANK1   BANK2   BANK3   BANK4   BANK5   BANK6   BANK7   BANK8   BANK9  BANK10  BANK1
      +1  BANK12  BANK13  BANK14  BANK15
  6166 ;;      Params:         4       0       0       0       0       0       0       0       0       0       0       0       
      +0       0       0       0       0
  6167 ;;      Locals:         0       0       0       0       0       0       0       0       0       0       0       0       
      +0       0       0       0       0
  6168 ;;      Temps:          0       0       0       0       0       0       0       0       0       0       0       0       
      +0       0       0       0       0
  6169 ;;      Totals:         4       0       0       0       0       0       0       0       0       0       0       0       
      +0       0       0       0       0
  6170 ;;Total ram usage:        4 bytes
  6171 ;; Hardware stack levels used: 1
  6172 ;; Hardware stack levels required when called: 1
  6173 ;; This function calls:
  6174 ;;		_I2C1_SetCallback
  6175 ;; This function is called by:
  6176 ;;		_rd1RegCompleteHandler
  6177 ;;		_rd2RegCompleteHandler
  6178 ;;		_wr1RegCompleteHandler
  6179 ;;		_wr2RegCompleteHandler
  6180 ;;		_rdBlkRegCompleteHandler
  6181 ;;		_I2C1_Read1ByteRegister
  6182 ;;		_I2C1_Read2ByteRegister
  6183 ;;		_I2C1_Write1ByteRegister
  6184 ;;		_I2C1_Write2ByteRegister
  6185 ;;		_I2C1_ReadDataBlock
  6186 ;; This function uses a non-reentrant model
  6187 ;;
  6188                           
  6189                           	psect	text69
  6190   001F5A                     __ptext69:
  6191                           	callstack 0
  6192   001F5A                     _I2C1_SetDataCompleteCallback:
  6193                           	callstack 21
  6194   001F5A                     
  6195                           ;mcc_generated_files/i2c1_master.c: 303: void I2C1_SetDataCompleteCallback(i2c1_callback
      +                          _t cb, void *ptr);mcc_generated_files/i2c1_master.c: 304: {;mcc_generated_files/i2c1_mas
      +                          ter.c: 305:     I2C1_SetCallback(I2C1_DATA_COMPLETE, cb, ptr);
  6196   001F5A  C006  F001         	movff	I2C1_SetDataCompleteCallback@cb,I2C1_SetCallback@cb
  6197   001F5E  C007  F002         	movff	I2C1_SetDataCompleteCallback@cb+1,I2C1_SetCallback@cb+1
  6198   001F62  C008  F003         	movff	I2C1_SetDataCompleteCallback@ptr,I2C1_SetCallback@ptr
  6199   001F66  C009  F004         	movff	I2C1_SetDataCompleteCallback@ptr+1,I2C1_SetCallback@ptr+1
  6200   001F6A  0E00               	movlw	0
  6201   001F6C  EC7F  F00C         	call	_I2C1_SetCallback
  6202   001F70  0012               	return		;funcret
  6203   001F72                     __end_of_I2C1_SetDataCompleteCallback:
  6204                           	callstack 0
  6205                           
  6206 ;; *************** function _I2C1_SetCallback *****************
  6207 ;; Defined at:
  6208 ;;		line 328 in file "mcc_generated_files/i2c1_master.c"
  6209 ;; Parameters:    Size  Location     Type
  6210 ;;  idx             1    wreg     enum E16651
  6211 ;;  cb              2    0[COMRAM] PTR FTN(PTR void ,)enum 
  6212 ;;		 -> NULL(1), rdBlkRegCompleteHandler(1), wr2RegCompleteHandler(1), wr1RegCompleteHandler(1), 
  6213 ;;		 -> rd2RegCompleteHandler(1), rd1RegCompleteHandler(1), 
  6214 ;;  ptr             2    2[COMRAM] PTR void 
  6215 ;;		 -> I2C1_ReadDataBlock@bufferBlock(3), I2C1_Write2ByteRegister@data(2), I2C1_Write1ByteRegister@data(1), I2C1_Read2B
      +yteRegister@returnValue(2), 
  6216 ;;		 -> NULL(0), I2C1_Read1ByteRegister@returnValue(1), 
  6217 ;; Auto vars:     Size  Location     Type
  6218 ;;  idx             1    4[COMRAM] enum E16651
  6219 ;; Return value:  Size  Location     Type
  6220 ;;                  1    wreg      void 
  6221 ;; Registers used:
  6222 ;;		wreg, fsr2l, fsr2h, status,2, status,0, prodl, prodh
  6223 ;; Tracked objects:
  6224 ;;		On entry : 0/0
  6225 ;;		On exit  : 0/0
  6226 ;;		Unchanged: 0/0
  6227 ;; Data sizes:     COMRAM   BANK0   BANK1   BANK2   BANK3   BANK4   BANK5   BANK6   BANK7   BANK8   BANK9  BANK10  BANK1
      +1  BANK12  BANK13  BANK14  BANK15
  6228 ;;      Params:         4       0       0       0       0       0       0       0       0       0       0       0       
      +0       0       0       0       0
  6229 ;;      Locals:         1       0       0       0       0       0       0       0       0       0       0       0       
      +0       0       0       0       0
  6230 ;;      Temps:          0       0       0       0       0       0       0       0       0       0       0       0       
      +0       0       0       0       0
  6231 ;;      Totals:         5       0       0       0       0       0       0       0       0       0       0       0       
      +0       0       0       0       0
  6232 ;;Total ram usage:        5 bytes
  6233 ;; Hardware stack levels used: 1
  6234 ;; This function calls:
  6235 ;;		Nothing
  6236 ;; This function is called by:
  6237 ;;		_I2C1_SetDataCompleteCallback
  6238 ;;		_I2C1_SetAddressNackCallback
  6239 ;;		_I2C1_SetWriteCollisionCallback
  6240 ;;		_I2C1_SetDataNackCallback
  6241 ;;		_I2C1_SetTimeoutCallback
  6242 ;; This function uses a non-reentrant model
  6243 ;;
  6244                           
  6245                           	psect	text70
  6246   0018FE                     __ptext70:
  6247                           	callstack 0
  6248   0018FE                     _I2C1_SetCallback:
  6249                           	callstack 27
  6250                           
  6251                           ;incstack = 0
  6252                           ;I2C1_SetCallback@idx stored from wreg
  6253   0018FE  6E05               	movwf	I2C1_SetCallback@idx^0,c
  6254   001900                     
  6255                           ;mcc_generated_files/i2c1_master.c: 328: static void I2C1_SetCallback(i2c1_callbackIndex
      +                          _t idx, i2c1_callback_t cb, void *ptr);mcc_generated_files/i2c1_master.c: 329: {;mcc_gen
      +                          erated_files/i2c1_master.c: 330:     if(cb)
  6256   001900  5001               	movf	I2C1_SetCallback@cb^0,w,c
  6257   001902  1002               	iorwf	(I2C1_SetCallback@cb+1)^0,w,c
  6258   001904  B4D8               	btfsc	status,2,c
  6259   001906  EF87  F00C         	goto	u831
  6260   00190A  EF89  F00C         	goto	u830
  6261   00190E                     u831:
  6262   00190E  EFA3  F00C         	goto	l2684
  6263   001912                     u830:
  6264   001912                     
  6265                           ;mcc_generated_files/i2c1_master.c: 331:     {;mcc_generated_files/i2c1_master.c: 332:  
      +                                 I2C1_Status.callbackTable[idx] = cb;
  6266   001912  5005               	movf	I2C1_SetCallback@idx^0,w,c
  6267   001914  0D02               	mullw	2
  6268   001916  50F3               	movf	243,w,c
  6269   001918  0F2E               	addlw	low _I2C1_Status
  6270   00191A  6ED9               	movwf	fsr2l,c
  6271   00191C  6ADA               	clrf	fsr2h,c
  6272   00191E  0060  F007  FFDE   	movff	I2C1_SetCallback@cb,postinc2
  6273   001924  0060  F00B  FFDD   	movff	I2C1_SetCallback@cb+1,postdec2
  6274                           
  6275                           ;mcc_generated_files/i2c1_master.c: 333:         I2C1_Status.callbackPayload[idx] = ptr;
  6276   00192A  5005               	movf	I2C1_SetCallback@idx^0,w,c
  6277   00192C  0D02               	mullw	2
  6278   00192E  50F3               	movf	243,w,c
  6279   001930  0F3A               	addlw	low (_I2C1_Status+12)
  6280   001932  6ED9               	movwf	fsr2l,c
  6281   001934  6ADA               	clrf	fsr2h,c
  6282   001936  0060  F00F  FFDE   	movff	I2C1_SetCallback@ptr,postinc2
  6283   00193C  0060  F013  FFDD   	movff	I2C1_SetCallback@ptr+1,postdec2
  6284                           
  6285                           ;mcc_generated_files/i2c1_master.c: 334:     }
  6286   001942  EFB5  F00C         	goto	l418
  6287   001946                     l2684:
  6288                           
  6289                           ;mcc_generated_files/i2c1_master.c: 336:     {;mcc_generated_files/i2c1_master.c: 337:  
      +                                 I2C1_Status.callbackTable[idx] = I2C1_CallbackReturnStop;
  6290   001946  5005               	movf	I2C1_SetCallback@idx^0,w,c
  6291   001948  0D02               	mullw	2
  6292   00194A  50F3               	movf	243,w,c
  6293   00194C  0F2E               	addlw	low _I2C1_Status
  6294   00194E  6ED9               	movwf	fsr2l,c
  6295   001950  6ADA               	clrf	fsr2h,c
  6296   001952  0E2A               	movlw	low _I2C1_CallbackReturnStop
  6297   001954  6EDE               	movwf	postinc2,c
  6298   001956  0E21               	movlw	high _I2C1_CallbackReturnStop
  6299   001958  6EDD               	movwf	postdec2,c
  6300                           
  6301                           ;mcc_generated_files/i2c1_master.c: 338:         I2C1_Status.callbackPayload[idx] = ((vo
      +                          id*)0);
  6302   00195A  5005               	movf	I2C1_SetCallback@idx^0,w,c
  6303   00195C  0D02               	mullw	2
  6304   00195E  50F3               	movf	243,w,c
  6305   001960  0F3A               	addlw	low (_I2C1_Status+12)
  6306   001962  6ED9               	movwf	fsr2l,c
  6307   001964  6ADA               	clrf	fsr2h,c
  6308   001966  6ADE               	clrf	postinc2,c
  6309   001968  6ADD               	clrf	postdec2,c
  6310   00196A                     l418:
  6311   00196A  0012               	return		;funcret
  6312   00196C                     __end_of_I2C1_SetCallback:
  6313                           	callstack 0
  6314                           
  6315 ;; *************** function _I2C1_SetBuffer *****************
  6316 ;; Defined at:
  6317 ;;		line 293 in file "mcc_generated_files/i2c1_master.c"
  6318 ;; Parameters:    Size  Location     Type
  6319 ;;  buffer          2    0[COMRAM] PTR void 
  6320 ;;		 -> EEPROM_ReadByte@data(1), EEPROM_ReadByte@addressBuffer(2), EEPROM_WriteByte@buffer(3), MPU6050_ReadSensorData@bu
      +ffer(12), 
  6321 ;;		 -> I2C1_ReadDataBlock@reg(1), I2C1_ReadDataBlock@bufferBlock(3), I2C1_Write2ByteRegister@reg(1), I2C1_Write2ByteReg
      +ister@data(2), 
  6322 ;;		 -> I2C1_Write1ByteRegister@reg(1), I2C1_Write1ByteRegister@data(1), I2C1_Read2ByteRegister@reg(1), I2C1_Read2ByteRe
      +gister@returnValue(2), 
  6323 ;;		 -> NULL(0), I2C1_Read1ByteRegister@reg(1), I2C1_Read1ByteRegister@returnValue(1), 
  6324 ;;  bufferSize      2    2[COMRAM] unsigned int 
  6325 ;; Auto vars:     Size  Location     Type
  6326 ;;		None
  6327 ;; Return value:  Size  Location     Type
  6328 ;;                  1    wreg      void 
  6329 ;; Registers used:
  6330 ;;		wreg, status,2, status,0
  6331 ;; Tracked objects:
  6332 ;;		On entry : 0/0
  6333 ;;		On exit  : 0/0
  6334 ;;		Unchanged: 0/0
  6335 ;; Data sizes:     COMRAM   BANK0   BANK1   BANK2   BANK3   BANK4   BANK5   BANK6   BANK7   BANK8   BANK9  BANK10  BANK1
      +1  BANK12  BANK13  BANK14  BANK15
  6336 ;;      Params:         4       0       0       0       0       0       0       0       0       0       0       0       
      +0       0       0       0       0
  6337 ;;      Locals:         0       0       0       0       0       0       0       0       0       0       0       0       
      +0       0       0       0       0
  6338 ;;      Temps:          0       0       0       0       0       0       0       0       0       0       0       0       
      +0       0       0       0       0
  6339 ;;      Totals:         4       0       0       0       0       0       0       0       0       0       0       0       
      +0       0       0       0       0
  6340 ;;Total ram usage:        4 bytes
  6341 ;; Hardware stack levels used: 1
  6342 ;; This function calls:
  6343 ;;		Nothing
  6344 ;; This function is called by:
  6345 ;;		_I2C1_WriteNBytes
  6346 ;;		_I2C1_ReadNBytes
  6347 ;;		_rd1RegCompleteHandler
  6348 ;;		_rd2RegCompleteHandler
  6349 ;;		_wr1RegCompleteHandler
  6350 ;;		_wr2RegCompleteHandler
  6351 ;;		_rdBlkRegCompleteHandler
  6352 ;;		_I2C1_Read1ByteRegister
  6353 ;;		_I2C1_Read2ByteRegister
  6354 ;;		_I2C1_Write1ByteRegister
  6355 ;;		_I2C1_Write2ByteRegister
  6356 ;;		_I2C1_ReadDataBlock
  6357 ;; This function uses a non-reentrant model
  6358 ;;
  6359                           
  6360                           	psect	text71
  6361   001E96                     __ptext71:
  6362                           	callstack 0
  6363   001E96                     _I2C1_SetBuffer:
  6364                           	callstack 28
  6365   001E96                     
  6366                           ;mcc_generated_files/i2c1_master.c: 293: void I2C1_SetBuffer(void *buffer, size_t buffer
      +                          Size);mcc_generated_files/i2c1_master.c: 294: {;mcc_generated_files/i2c1_master.c: 295: 
      +                              if(I2C1_Status.bufferFree)
  6367   001E96  A851               	btfss	(_I2C1_Status+35)^0,4,c
  6368   001E98  EF50  F00F         	goto	u841
  6369   001E9C  EF52  F00F         	goto	u840
  6370   001EA0                     u841:
  6371   001EA0  EF5B  F00F         	goto	l398
  6372   001EA4                     u840:
  6373   001EA4                     
  6374                           ;mcc_generated_files/i2c1_master.c: 296:     {;mcc_generated_files/i2c1_master.c: 297:  
      +                                 I2C1_Status.data_ptr = buffer;
  6375   001EA4  C001  F04B         	movff	I2C1_SetBuffer@buffer,_I2C1_Status+29
  6376   001EA8  C002  F04C         	movff	I2C1_SetBuffer@buffer+1,_I2C1_Status+30
  6377   001EAC                     
  6378                           ;mcc_generated_files/i2c1_master.c: 298:         I2C1_Status.data_length = bufferSize;
  6379   001EAC  C003  F04D         	movff	I2C1_SetBuffer@bufferSize,_I2C1_Status+31
  6380   001EB0  C004  F04E         	movff	I2C1_SetBuffer@bufferSize+1,_I2C1_Status+32
  6381   001EB4                     
  6382                           ;mcc_generated_files/i2c1_master.c: 299:         I2C1_Status.bufferFree = 0;
  6383   001EB4  9851               	bcf	(_I2C1_Status+35)^0,4,c
  6384   001EB6                     l398:
  6385   001EB6  0012               	return		;funcret
  6386   001EB8                     __end_of_I2C1_SetBuffer:
  6387                           	callstack 0
  6388                           
  6389 ;; *************** function _I2C1_ClearInterruptFlags *****************
  6390 ;; Defined at:
  6391 ;;		line 362 in file "mcc_generated_files/i2c1_master.c"
  6392 ;; Parameters:    Size  Location     Type
  6393 ;;		None
  6394 ;; Auto vars:     Size  Location     Type
  6395 ;;		None
  6396 ;; Return value:  Size  Location     Type
  6397 ;;                  1    wreg      void 
  6398 ;; Registers used:
  6399 ;;		wreg, status,2, cstack
  6400 ;; Tracked objects:
  6401 ;;		On entry : 0/0
  6402 ;;		On exit  : 0/0
  6403 ;;		Unchanged: 0/0
  6404 ;; Data sizes:     COMRAM   BANK0   BANK1   BANK2   BANK3   BANK4   BANK5   BANK6   BANK7   BANK8   BANK9  BANK10  BANK1
      +1  BANK12  BANK13  BANK14  BANK15
  6405 ;;      Params:         0       0       0       0       0       0       0       0       0       0       0       0       
      +0       0       0       0       0
  6406 ;;      Locals:         0       0       0       0       0       0       0       0       0       0       0       0       
      +0       0       0       0       0
  6407 ;;      Temps:          0       0       0       0       0       0       0       0       0       0       0       0       
      +0       0       0       0       0
  6408 ;;      Totals:         0       0       0       0       0       0       0       0       0       0       0       0       
      +0       0       0       0       0
  6409 ;;Total ram usage:        0 bytes
  6410 ;; Hardware stack levels used: 1
  6411 ;; Hardware stack levels required when called: 1
  6412 ;; This function calls:
  6413 ;;		_I2C1_MasterClearCountFlag
  6414 ;;		_I2C1_MasterClearNackFlag
  6415 ;;		_I2C1_MasterClearStopFlag
  6416 ;;		_I2C1_MasterIsCountFlagSet
  6417 ;;		_I2C1_MasterIsNackFlagSet
  6418 ;;		_I2C1_MasterIsStopFlagSet
  6419 ;; This function is called by:
  6420 ;;		_I2C1_MasterFsm
  6421 ;; This function uses a non-reentrant model
  6422 ;;
  6423                           
  6424                           	psect	text72
  6425   001AEE                     __ptext72:
  6426                           	callstack 0
  6427   001AEE                     _I2C1_ClearInterruptFlags:
  6428                           	callstack 23
  6429   001AEE                     
  6430                           ;mcc_generated_files/i2c1_master.c: 364:     if(I2C1_MasterIsCountFlagSet())
  6431   001AEE  ECFB  F00F         	call	_I2C1_MasterIsCountFlagSet	;wreg free
  6432   001AF2  0900               	iorlw	0
  6433   001AF4  B4D8               	btfsc	status,2,c
  6434   001AF6  EF7F  F00D         	goto	u951
  6435   001AFA  EF81  F00D         	goto	u950
  6436   001AFE                     u951:
  6437   001AFE  EF85  F00D         	goto	l2920
  6438   001B02                     u950:
  6439   001B02                     
  6440                           ;mcc_generated_files/i2c1_master.c: 365:     {;mcc_generated_files/i2c1_master.c: 366:  
      +                                 I2C1_MasterClearCountFlag();
  6441   001B02  EC8C  F010         	call	_I2C1_MasterClearCountFlag	;wreg free
  6442                           
  6443                           ;mcc_generated_files/i2c1_master.c: 367:     }
  6444   001B06  EF9F  F00D         	goto	l436
  6445   001B0A                     l2920:
  6446   001B0A  ECE5  F00F         	call	_I2C1_MasterIsStopFlagSet	;wreg free
  6447   001B0E  0900               	iorlw	0
  6448   001B10  B4D8               	btfsc	status,2,c
  6449   001B12  EF8D  F00D         	goto	u961
  6450   001B16  EF8F  F00D         	goto	u960
  6451   001B1A                     u961:
  6452   001B1A  EF93  F00D         	goto	l2924
  6453   001B1E                     u960:
  6454   001B1E                     
  6455                           ;mcc_generated_files/i2c1_master.c: 369:     {;mcc_generated_files/i2c1_master.c: 370:  
      +                                 I2C1_MasterClearStopFlag();
  6456   001B1E  EC86  F010         	call	_I2C1_MasterClearStopFlag	;wreg free
  6457                           
  6458                           ;mcc_generated_files/i2c1_master.c: 371:     }
  6459   001B22  EF9F  F00D         	goto	l436
  6460   001B26                     l2924:
  6461   001B26  ECF0  F00F         	call	_I2C1_MasterIsNackFlagSet	;wreg free
  6462   001B2A  0900               	iorlw	0
  6463   001B2C  B4D8               	btfsc	status,2,c
  6464   001B2E  EF9B  F00D         	goto	u971
  6465   001B32  EF9D  F00D         	goto	u970
  6466   001B36                     u971:
  6467   001B36  EF9F  F00D         	goto	l436
  6468   001B3A                     u970:
  6469   001B3A                     
  6470                           ;mcc_generated_files/i2c1_master.c: 373:     {;mcc_generated_files/i2c1_master.c: 374:  
      +                                 I2C1_MasterClearNackFlag();
  6471   001B3A  EC89  F010         	call	_I2C1_MasterClearNackFlag	;wreg free
  6472   001B3E                     l436:
  6473   001B3E  0012               	return		;funcret
  6474   001B40                     __end_of_I2C1_ClearInterruptFlags:
  6475                           	callstack 0
  6476                           
  6477 ;; *************** function _I2C1_MasterIsStopFlagSet *****************
  6478 ;; Defined at:
  6479 ;;		line 745 in file "mcc_generated_files/i2c1_master.c"
  6480 ;; Parameters:    Size  Location     Type
  6481 ;;		None
  6482 ;; Auto vars:     Size  Location     Type
  6483 ;;		None
  6484 ;; Return value:  Size  Location     Type
  6485 ;;                  1    wreg      _Bool 
  6486 ;; Registers used:
  6487 ;;		wreg
  6488 ;; Tracked objects:
  6489 ;;		On entry : 0/0
  6490 ;;		On exit  : 0/0
  6491 ;;		Unchanged: 0/0
  6492 ;; Data sizes:     COMRAM   BANK0   BANK1   BANK2   BANK3   BANK4   BANK5   BANK6   BANK7   BANK8   BANK9  BANK10  BANK1
      +1  BANK12  BANK13  BANK14  BANK15
  6493 ;;      Params:         0       0       0       0       0       0       0       0       0       0       0       0       
      +0       0       0       0       0
  6494 ;;      Locals:         0       0       0       0       0       0       0       0       0       0       0       0       
      +0       0       0       0       0
  6495 ;;      Temps:          0       0       0       0       0       0       0       0       0       0       0       0       
      +0       0       0       0       0
  6496 ;;      Totals:         0       0       0       0       0       0       0       0       0       0       0       0       
      +0       0       0       0       0
  6497 ;;Total ram usage:        0 bytes
  6498 ;; Hardware stack levels used: 1
  6499 ;; This function calls:
  6500 ;;		Nothing
  6501 ;; This function is called by:
  6502 ;;		_I2C1_ClearInterruptFlags
  6503 ;; This function uses a non-reentrant model
  6504 ;;
  6505                           
  6506                           	psect	text73
  6507   001FCA                     __ptext73:
  6508                           	callstack 0
  6509   001FCA                     _I2C1_MasterIsStopFlagSet:
  6510                           	callstack 23
  6511   001FCA                     
  6512                           ;mcc_generated_files/i2c1_master.c: 747:     return I2C1PIRbits.PCIF;
  6513   001FCA  013D               	movlb	61	; () banked
  6514   001FCC  B579               	btfsc	121,2,b	;volatile
  6515   001FCE  EFEB  F00F         	goto	u901
  6516   001FD2  EFEE  F00F         	goto	u900
  6517   001FD6                     u901:
  6518   001FD6  0E01               	movlw	1
  6519   001FD8  EFEF  F00F         	goto	u906
  6520   001FDC                     u900:
  6521   001FDC  0E00               	movlw	0
  6522   001FDE                     u906:
  6523   001FDE                     
  6524                           ; BSR set to: 61
  6525   001FDE  0012               	return		;funcret
  6526   001FE0                     __end_of_I2C1_MasterIsStopFlagSet:
  6527                           	callstack 0
  6528                           
  6529 ;; *************** function _I2C1_MasterIsNackFlagSet *****************
  6530 ;; Defined at:
  6531 ;;		line 755 in file "mcc_generated_files/i2c1_master.c"
  6532 ;; Parameters:    Size  Location     Type
  6533 ;;		None
  6534 ;; Auto vars:     Size  Location     Type
  6535 ;;		None
  6536 ;; Return value:  Size  Location     Type
  6537 ;;                  1    wreg      _Bool 
  6538 ;; Registers used:
  6539 ;;		wreg
  6540 ;; Tracked objects:
  6541 ;;		On entry : 0/0
  6542 ;;		On exit  : 0/0
  6543 ;;		Unchanged: 0/0
  6544 ;; Data sizes:     COMRAM   BANK0   BANK1   BANK2   BANK3   BANK4   BANK5   BANK6   BANK7   BANK8   BANK9  BANK10  BANK1
      +1  BANK12  BANK13  BANK14  BANK15
  6545 ;;      Params:         0       0       0       0       0       0       0       0       0       0       0       0       
      +0       0       0       0       0
  6546 ;;      Locals:         0       0       0       0       0       0       0       0       0       0       0       0       
      +0       0       0       0       0
  6547 ;;      Temps:          0       0       0       0       0       0       0       0       0       0       0       0       
      +0       0       0       0       0
  6548 ;;      Totals:         0       0       0       0       0       0       0       0       0       0       0       0       
      +0       0       0       0       0
  6549 ;;Total ram usage:        0 bytes
  6550 ;; Hardware stack levels used: 1
  6551 ;; This function calls:
  6552 ;;		Nothing
  6553 ;; This function is called by:
  6554 ;;		_I2C1_ClearInterruptFlags
  6555 ;; This function uses a non-reentrant model
  6556 ;;
  6557                           
  6558                           	psect	text74
  6559   001FE0                     __ptext74:
  6560                           	callstack 0
  6561   001FE0                     _I2C1_MasterIsNackFlagSet:
  6562                           	callstack 23
  6563   001FE0                     
  6564                           ;mcc_generated_files/i2c1_master.c: 757:     return I2C1ERRbits.NACKIF;
  6565   001FE0  013D               	movlb	61	; () banked
  6566   001FE2  B976               	btfsc	118,4,b	;volatile
  6567   001FE4  EFF6  F00F         	goto	u911
  6568   001FE8  EFF9  F00F         	goto	u910
  6569   001FEC                     u911:
  6570   001FEC  0E01               	movlw	1
  6571   001FEE  EFFA  F00F         	goto	u916
  6572   001FF2                     u910:
  6573   001FF2  0E00               	movlw	0
  6574   001FF4                     u916:
  6575   001FF4                     
  6576                           ; BSR set to: 61
  6577   001FF4  0012               	return		;funcret
  6578   001FF6                     __end_of_I2C1_MasterIsNackFlagSet:
  6579                           	callstack 0
  6580                           
  6581 ;; *************** function _I2C1_MasterIsCountFlagSet *****************
  6582 ;; Defined at:
  6583 ;;		line 750 in file "mcc_generated_files/i2c1_master.c"
  6584 ;; Parameters:    Size  Location     Type
  6585 ;;		None
  6586 ;; Auto vars:     Size  Location     Type
  6587 ;;		None
  6588 ;; Return value:  Size  Location     Type
  6589 ;;                  1    wreg      _Bool 
  6590 ;; Registers used:
  6591 ;;		wreg
  6592 ;; Tracked objects:
  6593 ;;		On entry : 0/0
  6594 ;;		On exit  : 0/0
  6595 ;;		Unchanged: 0/0
  6596 ;; Data sizes:     COMRAM   BANK0   BANK1   BANK2   BANK3   BANK4   BANK5   BANK6   BANK7   BANK8   BANK9  BANK10  BANK1
      +1  BANK12  BANK13  BANK14  BANK15
  6597 ;;      Params:         0       0       0       0       0       0       0       0       0       0       0       0       
      +0       0       0       0       0
  6598 ;;      Locals:         0       0       0       0       0       0       0       0       0       0       0       0       
      +0       0       0       0       0
  6599 ;;      Temps:          0       0       0       0       0       0       0       0       0       0       0       0       
      +0       0       0       0       0
  6600 ;;      Totals:         0       0       0       0       0       0       0       0       0       0       0       0       
      +0       0       0       0       0
  6601 ;;Total ram usage:        0 bytes
  6602 ;; Hardware stack levels used: 1
  6603 ;; This function calls:
  6604 ;;		Nothing
  6605 ;; This function is called by:
  6606 ;;		_I2C1_ClearInterruptFlags
  6607 ;; This function uses a non-reentrant model
  6608 ;;
  6609                           
  6610                           	psect	text75
  6611   001FF6                     __ptext75:
  6612                           	callstack 0
  6613   001FF6                     _I2C1_MasterIsCountFlagSet:
  6614                           	callstack 23
  6615   001FF6                     
  6616                           ;mcc_generated_files/i2c1_master.c: 752:     return I2C1PIRbits.CNTIF;
  6617   001FF6  013D               	movlb	61	; () banked
  6618   001FF8  BF79               	btfsc	121,7,b	;volatile
  6619   001FFA  EF01  F010         	goto	u891
  6620   001FFE  EF04  F010         	goto	u890
  6621   002002                     u891:
  6622   002002  0E01               	movlw	1
  6623   002004  EF05  F010         	goto	u896
  6624   002008                     u890:
  6625   002008  0E00               	movlw	0
  6626   00200A                     u896:
  6627   00200A                     
  6628                           ; BSR set to: 61
  6629   00200A  0012               	return		;funcret
  6630   00200C                     __end_of_I2C1_MasterIsCountFlagSet:
  6631                           	callstack 0
  6632                           
  6633 ;; *************** function _I2C1_MasterClearStopFlag *****************
  6634 ;; Defined at:
  6635 ;;		line 760 in file "mcc_generated_files/i2c1_master.c"
  6636 ;; Parameters:    Size  Location     Type
  6637 ;;		None
  6638 ;; Auto vars:     Size  Location     Type
  6639 ;;		None
  6640 ;; Return value:  Size  Location     Type
  6641 ;;                  1    wreg      void 
  6642 ;; Registers used:
  6643 ;;		None
  6644 ;; Tracked objects:
  6645 ;;		On entry : 0/0
  6646 ;;		On exit  : 0/0
  6647 ;;		Unchanged: 0/0
  6648 ;; Data sizes:     COMRAM   BANK0   BANK1   BANK2   BANK3   BANK4   BANK5   BANK6   BANK7   BANK8   BANK9  BANK10  BANK1
      +1  BANK12  BANK13  BANK14  BANK15
  6649 ;;      Params:         0       0       0       0       0       0       0       0       0       0       0       0       
      +0       0       0       0       0
  6650 ;;      Locals:         0       0       0       0       0       0       0       0       0       0       0       0       
      +0       0       0       0       0
  6651 ;;      Temps:          0       0       0       0       0       0       0       0       0       0       0       0       
      +0       0       0       0       0
  6652 ;;      Totals:         0       0       0       0       0       0       0       0       0       0       0       0       
      +0       0       0       0       0
  6653 ;;Total ram usage:        0 bytes
  6654 ;; Hardware stack levels used: 1
  6655 ;; This function calls:
  6656 ;;		Nothing
  6657 ;; This function is called by:
  6658 ;;		_I2C1_ClearInterruptFlags
  6659 ;; This function uses a non-reentrant model
  6660 ;;
  6661                           
  6662                           	psect	text76
  6663   00210C                     __ptext76:
  6664                           	callstack 0
  6665   00210C                     _I2C1_MasterClearStopFlag:
  6666                           	callstack 23
  6667   00210C                     
  6668                           ;mcc_generated_files/i2c1_master.c: 762:     I2C1PIRbits.PCIF = 0;
  6669   00210C  013D               	movlb	61	; () banked
  6670   00210E  9579               	bcf	121,2,b	;volatile
  6671   002110                     
  6672                           ; BSR set to: 61
  6673   002110  0012               	return		;funcret
  6674   002112                     __end_of_I2C1_MasterClearStopFlag:
  6675                           	callstack 0
  6676                           
  6677 ;; *************** function _I2C1_MasterClearNackFlag *****************
  6678 ;; Defined at:
  6679 ;;		line 770 in file "mcc_generated_files/i2c1_master.c"
  6680 ;; Parameters:    Size  Location     Type
  6681 ;;		None
  6682 ;; Auto vars:     Size  Location     Type
  6683 ;;		None
  6684 ;; Return value:  Size  Location     Type
  6685 ;;                  1    wreg      void 
  6686 ;; Registers used:
  6687 ;;		None
  6688 ;; Tracked objects:
  6689 ;;		On entry : 0/0
  6690 ;;		On exit  : 0/0
  6691 ;;		Unchanged: 0/0
  6692 ;; Data sizes:     COMRAM   BANK0   BANK1   BANK2   BANK3   BANK4   BANK5   BANK6   BANK7   BANK8   BANK9  BANK10  BANK1
      +1  BANK12  BANK13  BANK14  BANK15
  6693 ;;      Params:         0       0       0       0       0       0       0       0       0       0       0       0       
      +0       0       0       0       0
  6694 ;;      Locals:         0       0       0       0       0       0       0       0       0       0       0       0       
      +0       0       0       0       0
  6695 ;;      Temps:          0       0       0       0       0       0       0       0       0       0       0       0       
      +0       0       0       0       0
  6696 ;;      Totals:         0       0       0       0       0       0       0       0       0       0       0       0       
      +0       0       0       0       0
  6697 ;;Total ram usage:        0 bytes
  6698 ;; Hardware stack levels used: 1
  6699 ;; This function calls:
  6700 ;;		Nothing
  6701 ;; This function is called by:
  6702 ;;		_I2C1_ClearInterruptFlags
  6703 ;; This function uses a non-reentrant model
  6704 ;;
  6705                           
  6706                           	psect	text77
  6707   002112                     __ptext77:
  6708                           	callstack 0
  6709   002112                     _I2C1_MasterClearNackFlag:
  6710                           	callstack 23
  6711   002112                     
  6712                           ;mcc_generated_files/i2c1_master.c: 772:     I2C1ERRbits.NACKIF = 0;
  6713   002112  013D               	movlb	61	; () banked
  6714   002114  9976               	bcf	118,4,b	;volatile
  6715   002116                     
  6716                           ; BSR set to: 61
  6717   002116  0012               	return		;funcret
  6718   002118                     __end_of_I2C1_MasterClearNackFlag:
  6719                           	callstack 0
  6720                           
  6721 ;; *************** function _I2C1_MasterClearCountFlag *****************
  6722 ;; Defined at:
  6723 ;;		line 765 in file "mcc_generated_files/i2c1_master.c"
  6724 ;; Parameters:    Size  Location     Type
  6725 ;;		None
  6726 ;; Auto vars:     Size  Location     Type
  6727 ;;		None
  6728 ;; Return value:  Size  Location     Type
  6729 ;;                  1    wreg      void 
  6730 ;; Registers used:
  6731 ;;		None
  6732 ;; Tracked objects:
  6733 ;;		On entry : 0/0
  6734 ;;		On exit  : 0/0
  6735 ;;		Unchanged: 0/0
  6736 ;; Data sizes:     COMRAM   BANK0   BANK1   BANK2   BANK3   BANK4   BANK5   BANK6   BANK7   BANK8   BANK9  BANK10  BANK1
      +1  BANK12  BANK13  BANK14  BANK15
  6737 ;;      Params:         0       0       0       0       0       0       0       0       0       0       0       0       
      +0       0       0       0       0
  6738 ;;      Locals:         0       0       0       0       0       0       0       0       0       0       0       0       
      +0       0       0       0       0
  6739 ;;      Temps:          0       0       0       0       0       0       0       0       0       0       0       0       
      +0       0       0       0       0
  6740 ;;      Totals:         0       0       0       0       0       0       0       0       0       0       0       0       
      +0       0       0       0       0
  6741 ;;Total ram usage:        0 bytes
  6742 ;; Hardware stack levels used: 1
  6743 ;; This function calls:
  6744 ;;		Nothing
  6745 ;; This function is called by:
  6746 ;;		_I2C1_ClearInterruptFlags
  6747 ;; This function uses a non-reentrant model
  6748 ;;
  6749                           
  6750                           	psect	text78
  6751   002118                     __ptext78:
  6752                           	callstack 0
  6753   002118                     _I2C1_MasterClearCountFlag:
  6754                           	callstack 23
  6755   002118                     
  6756                           ;mcc_generated_files/i2c1_master.c: 767:     I2C1PIRbits.CNTIF = 0;
  6757   002118  013D               	movlb	61	; () banked
  6758   00211A  9F79               	bcf	121,7,b	;volatile
  6759   00211C                     
  6760                           ; BSR set to: 61
  6761   00211C  0012               	return		;funcret
  6762   00211E                     __end_of_I2C1_MasterClearCountFlag:
  6763                           	callstack 0
  6764                           
  6765 ;; *************** function _I2C1_Close *****************
  6766 ;; Defined at:
  6767 ;;		line 237 in file "mcc_generated_files/i2c1_master.c"
  6768 ;; Parameters:    Size  Location     Type
  6769 ;;		None
  6770 ;; Auto vars:     Size  Location     Type
  6771 ;;  returnValue     1    0[COMRAM] enum E358
  6772 ;; Return value:  Size  Location     Type
  6773 ;;                  1    wreg      enum E358
  6774 ;; Registers used:
  6775 ;;		wreg, status,2, cstack
  6776 ;; Tracked objects:
  6777 ;;		On entry : 0/0
  6778 ;;		On exit  : 0/0
  6779 ;;		Unchanged: 0/0
  6780 ;; Data sizes:     COMRAM   BANK0   BANK1   BANK2   BANK3   BANK4   BANK5   BANK6   BANK7   BANK8   BANK9  BANK10  BANK1
      +1  BANK12  BANK13  BANK14  BANK15
  6781 ;;      Params:         0       0       0       0       0       0       0       0       0       0       0       0       
      +0       0       0       0       0
  6782 ;;      Locals:         1       0       0       0       0       0       0       0       0       0       0       0       
      +0       0       0       0       0
  6783 ;;      Temps:          0       0       0       0       0       0       0       0       0       0       0       0       
      +0       0       0       0       0
  6784 ;;      Totals:         1       0       0       0       0       0       0       0       0       0       0       0       
      +0       0       0       0       0
  6785 ;;Total ram usage:        1 bytes
  6786 ;; Hardware stack levels used: 1
  6787 ;; Hardware stack levels required when called: 1
  6788 ;; This function calls:
  6789 ;;		_I2C1_MasterClearIrq
  6790 ;;		_I2C1_MasterClose
  6791 ;;		_I2C1_MasterDisableIrq
  6792 ;; This function is called by:
  6793 ;;		_I2C1_WriteNBytes
  6794 ;;		_I2C1_ReadNBytes
  6795 ;;		_I2C1_Read1ByteRegister
  6796 ;;		_I2C1_Read2ByteRegister
  6797 ;;		_I2C1_Write1ByteRegister
  6798 ;;		_I2C1_Write2ByteRegister
  6799 ;;		_I2C1_ReadDataBlock
  6800 ;; This function uses a non-reentrant model
  6801 ;;
  6802                           
  6803                           	psect	text79
  6804   001DFE                     __ptext79:
  6805                           	callstack 0
  6806   001DFE                     _I2C1_Close:
  6807                           	callstack 27
  6808   001DFE                     
  6809                           ;mcc_generated_files/i2c1_master.c: 239:     i2c1_error_t returnValue = I2C1_BUSY;
  6810   001DFE  0E01               	movlw	1
  6811   001E00  6E01               	movwf	I2C1_Close@returnValue^0,c
  6812   001E02                     
  6813                           ;mcc_generated_files/i2c1_master.c: 240:     if(!I2C1_Status.busy)
  6814   001E02  B451               	btfsc	(_I2C1_Status+35)^0,2,c
  6815   001E04  EF06  F00F         	goto	u1271
  6816   001E08  EF08  F00F         	goto	u1270
  6817   001E0C                     u1271:
  6818   001E0C  EF12  F00F         	goto	l3260
  6819   001E10                     u1270:
  6820   001E10                     
  6821                           ;mcc_generated_files/i2c1_master.c: 241:     {;mcc_generated_files/i2c1_master.c: 242:  
      +                                 I2C1_Status.inUse = 0;
  6822   001E10  9651               	bcf	(_I2C1_Status+35)^0,3,c
  6823                           
  6824                           ;mcc_generated_files/i2c1_master.c: 243:         I2C1_Status.address = 0xff;
  6825   001E12  684A               	setf	(_I2C1_Status+28)^0,c
  6826   001E14                     
  6827                           ;mcc_generated_files/i2c1_master.c: 244:         I2C1_MasterClearIrq();
  6828   001E14  EC6D  F010         	call	_I2C1_MasterClearIrq	;wreg free
  6829   001E18                     
  6830                           ;mcc_generated_files/i2c1_master.c: 245:         I2C1_MasterDisableIrq();
  6831   001E18  EC6B  F00F         	call	_I2C1_MasterDisableIrq	;wreg free
  6832   001E1C                     
  6833                           ;mcc_generated_files/i2c1_master.c: 246:         I2C1_MasterClose();
  6834   001E1C  EC2B  F010         	call	_I2C1_MasterClose	;wreg free
  6835   001E20                     
  6836                           ;mcc_generated_files/i2c1_master.c: 247:         returnValue = I2C1_Status.error;
  6837   001E20  C050  F001         	movff	_I2C1_Status+34,I2C1_Close@returnValue
  6838   001E24                     l3260:
  6839                           
  6840                           ;mcc_generated_files/i2c1_master.c: 249:     return returnValue;
  6841   001E24  5001               	movf	I2C1_Close@returnValue^0,w,c
  6842   001E26  0012               	return		;funcret
  6843   001E28                     __end_of_I2C1_Close:
  6844                           	callstack 0
  6845                           
  6846 ;; *************** function _I2C1_MasterDisableIrq *****************
  6847 ;; Defined at:
  6848 ;;		line 792 in file "mcc_generated_files/i2c1_master.c"
  6849 ;; Parameters:    Size  Location     Type
  6850 ;;		None
  6851 ;; Auto vars:     Size  Location     Type
  6852 ;;		None
  6853 ;; Return value:  Size  Location     Type
  6854 ;;                  1    wreg      void 
  6855 ;; Registers used:
  6856 ;;		None
  6857 ;; Tracked objects:
  6858 ;;		On entry : 0/0
  6859 ;;		On exit  : 0/0
  6860 ;;		Unchanged: 0/0
  6861 ;; Data sizes:     COMRAM   BANK0   BANK1   BANK2   BANK3   BANK4   BANK5   BANK6   BANK7   BANK8   BANK9  BANK10  BANK1
      +1  BANK12  BANK13  BANK14  BANK15
  6862 ;;      Params:         0       0       0       0       0       0       0       0       0       0       0       0       
      +0       0       0       0       0
  6863 ;;      Locals:         0       0       0       0       0       0       0       0       0       0       0       0       
      +0       0       0       0       0
  6864 ;;      Temps:          0       0       0       0       0       0       0       0       0       0       0       0       
      +0       0       0       0       0
  6865 ;;      Totals:         0       0       0       0       0       0       0       0       0       0       0       0       
      +0       0       0       0       0
  6866 ;;Total ram usage:        0 bytes
  6867 ;; Hardware stack levels used: 1
  6868 ;; This function calls:
  6869 ;;		Nothing
  6870 ;; This function is called by:
  6871 ;;		_I2C1_Close
  6872 ;;		_I2C1_SetTimeOut
  6873 ;; This function uses a non-reentrant model
  6874 ;;
  6875                           
  6876                           	psect	text80
  6877   001ED6                     __ptext80:
  6878                           	callstack 0
  6879   001ED6                     _I2C1_MasterDisableIrq:
  6880                           	callstack 27
  6881   001ED6                     
  6882                           ;mcc_generated_files/i2c1_master.c: 794:     PIE3bits.I2C1IE = 0;
  6883   001ED6  0139               	movlb	57	; () banked
  6884   001ED8  9393               	bcf	147,1,b	;volatile
  6885                           
  6886                           ;mcc_generated_files/i2c1_master.c: 795:     PIE3bits.I2C1EIE = 0;
  6887   001EDA  9593               	bcf	147,2,b	;volatile
  6888                           
  6889                           ;mcc_generated_files/i2c1_master.c: 796:     PIE2bits.I2C1RXIE = 0;
  6890   001EDC  9F92               	bcf	146,7,b	;volatile
  6891                           
  6892                           ;mcc_generated_files/i2c1_master.c: 797:     PIE3bits.I2C1TXIE = 0;
  6893   001EDE  9193               	bcf	147,0,b	;volatile
  6894                           
  6895                           ;mcc_generated_files/i2c1_master.c: 798:     I2C1PIEbits.SCIE = 0;
  6896   001EE0  013D               	movlb	61	; () banked
  6897   001EE2  917A               	bcf	122,0,b	;volatile
  6898                           
  6899                           ;mcc_generated_files/i2c1_master.c: 799:     I2C1PIEbits.PCIE = 0;
  6900   001EE4  957A               	bcf	122,2,b	;volatile
  6901                           
  6902                           ;mcc_generated_files/i2c1_master.c: 800:     I2C1PIEbits.CNTIE = 0;
  6903   001EE6  9F7A               	bcf	122,7,b	;volatile
  6904                           
  6905                           ;mcc_generated_files/i2c1_master.c: 801:     I2C1PIEbits.ACKTIE = 0;
  6906   001EE8  9D7A               	bcf	122,6,b	;volatile
  6907                           
  6908                           ;mcc_generated_files/i2c1_master.c: 802:     I2C1PIEbits.RSCIE = 0;
  6909   001EEA  937A               	bcf	122,1,b	;volatile
  6910                           
  6911                           ;mcc_generated_files/i2c1_master.c: 803:     I2C1ERRbits.BCLIE = 0;
  6912   001EEC  9376               	bcf	118,1,b	;volatile
  6913                           
  6914                           ;mcc_generated_files/i2c1_master.c: 804:     I2C1ERRbits.BTOIE = 0;
  6915   001EEE  9576               	bcf	118,2,b	;volatile
  6916                           
  6917                           ;mcc_generated_files/i2c1_master.c: 805:     I2C1ERRbits.NACKIE = 0;
  6918   001EF0  9176               	bcf	118,0,b	;volatile
  6919   001EF2                     
  6920                           ; BSR set to: 61
  6921   001EF2  0012               	return		;funcret
  6922   001EF4                     __end_of_I2C1_MasterDisableIrq:
  6923                           	callstack 0
  6924                           
  6925 ;; *************** function _I2C1_MasterClose *****************
  6926 ;; Defined at:
  6927 ;;		line 655 in file "mcc_generated_files/i2c1_master.c"
  6928 ;; Parameters:    Size  Location     Type
  6929 ;;		None
  6930 ;; Auto vars:     Size  Location     Type
  6931 ;;		None
  6932 ;; Return value:  Size  Location     Type
  6933 ;;                  1    wreg      void 
  6934 ;; Registers used:
  6935 ;;		wreg, status,2
  6936 ;; Tracked objects:
  6937 ;;		On entry : 0/0
  6938 ;;		On exit  : 0/0
  6939 ;;		Unchanged: 0/0
  6940 ;; Data sizes:     COMRAM   BANK0   BANK1   BANK2   BANK3   BANK4   BANK5   BANK6   BANK7   BANK8   BANK9  BANK10  BANK1
      +1  BANK12  BANK13  BANK14  BANK15
  6941 ;;      Params:         0       0       0       0       0       0       0       0       0       0       0       0       
      +0       0       0       0       0
  6942 ;;      Locals:         0       0       0       0       0       0       0       0       0       0       0       0       
      +0       0       0       0       0
  6943 ;;      Temps:          0       0       0       0       0       0       0       0       0       0       0       0       
      +0       0       0       0       0
  6944 ;;      Totals:         0       0       0       0       0       0       0       0       0       0       0       0       
      +0       0       0       0       0
  6945 ;;Total ram usage:        0 bytes
  6946 ;; Hardware stack levels used: 1
  6947 ;; This function calls:
  6948 ;;		Nothing
  6949 ;; This function is called by:
  6950 ;;		_I2C1_Close
  6951 ;; This function uses a non-reentrant model
  6952 ;;
  6953                           
  6954                           	psect	text81
  6955   002056                     __ptext81:
  6956                           	callstack 0
  6957   002056                     _I2C1_MasterClose:
  6958                           	callstack 27
  6959   002056                     
  6960                           ;mcc_generated_files/i2c1_master.c: 658:     I2C1CON0bits.EN = 0;
  6961   002056  013D               	movlb	61	; () banked
  6962   002058  9F73               	bcf	115,7,b	;volatile
  6963   00205A                     
  6964                           ; BSR set to: 61
  6965                           ;mcc_generated_files/i2c1_master.c: 660:     I2C1PIR = 0x00;
  6966   00205A  0E00               	movlw	0
  6967   00205C  6F79               	movwf	121,b	;volatile
  6968   00205E                     
  6969                           ; BSR set to: 61
  6970                           ;mcc_generated_files/i2c1_master.c: 662:     I2C1STAT1bits.CLRBF = 1;
  6971   00205E  8578               	bsf	120,2,b	;volatile
  6972   002060                     
  6973                           ; BSR set to: 61
  6974   002060  0012               	return		;funcret
  6975   002062                     __end_of_I2C1_MasterClose:
  6976                           	callstack 0
  6977                           
  6978 ;; *************** function _I2C1_MasterClearIrq *****************
  6979 ;; Defined at:
  6980 ;;		line 808 in file "mcc_generated_files/i2c1_master.c"
  6981 ;; Parameters:    Size  Location     Type
  6982 ;;		None
  6983 ;; Auto vars:     Size  Location     Type
  6984 ;;		None
  6985 ;; Return value:  Size  Location     Type
  6986 ;;                  1    wreg      void 
  6987 ;; Registers used:
  6988 ;;		wreg, status,2
  6989 ;; Tracked objects:
  6990 ;;		On entry : 0/0
  6991 ;;		On exit  : 0/0
  6992 ;;		Unchanged: 0/0
  6993 ;; Data sizes:     COMRAM   BANK0   BANK1   BANK2   BANK3   BANK4   BANK5   BANK6   BANK7   BANK8   BANK9  BANK10  BANK1
      +1  BANK12  BANK13  BANK14  BANK15
  6994 ;;      Params:         0       0       0       0       0       0       0       0       0       0       0       0       
      +0       0       0       0       0
  6995 ;;      Locals:         0       0       0       0       0       0       0       0       0       0       0       0       
      +0       0       0       0       0
  6996 ;;      Temps:          0       0       0       0       0       0       0       0       0       0       0       0       
      +0       0       0       0       0
  6997 ;;      Totals:         0       0       0       0       0       0       0       0       0       0       0       0       
      +0       0       0       0       0
  6998 ;;Total ram usage:        0 bytes
  6999 ;; Hardware stack levels used: 1
  7000 ;; This function calls:
  7001 ;;		Nothing
  7002 ;; This function is called by:
  7003 ;;		_I2C1_Open
  7004 ;;		_I2C1_Close
  7005 ;;		_I2C1_DO_BUS_COLLISION
  7006 ;; This function uses a non-reentrant model
  7007 ;;
  7008                           
  7009                           	psect	text82
  7010   0020DA                     __ptext82:
  7011                           	callstack 0
  7012   0020DA                     _I2C1_MasterClearIrq:
  7013                           	callstack 27
  7014   0020DA                     
  7015                           ;mcc_generated_files/i2c1_master.c: 810:     I2C1PIR = 0x00;
  7016   0020DA  0E00               	movlw	0
  7017   0020DC  013D               	movlb	61	; () banked
  7018   0020DE  6F79               	movwf	121,b	;volatile
  7019   0020E0                     
  7020                           ; BSR set to: 61
  7021   0020E0  0012               	return		;funcret
  7022   0020E2                     __end_of_I2C1_MasterClearIrq:
  7023                           	callstack 0
  7024                           
  7025                           	psect	text83
  7026   000000                     __ptext83:
  7027                           	callstack 0
  7028   000000                     
  7029                           	psect	rparam
  7030   000000                     
  7031                           	psect	config
  7032                           
  7033                           ;Config register CONFIG1L @ 0x300000
  7034                           ;	External Oscillator Selection
  7035                           ;	FEXTOSC = HS, HS (crystal oscillator) above 8 MHz; PFM set to high power
  7036                           ;	Reset Oscillator Selection
  7037                           ;	RSTOSC = EXTOSC, EXTOSC operating per FEXTOSC bits (device manufacturing default)
  7038   300000                     	org	3145728
  7039   300000  FA                 	db	250
  7040                           
  7041                           ;Config register CONFIG1H @ 0x300001
  7042                           ;	Clock out Enable bit
  7043                           ;	CLKOUTEN = OFF, CLKOUT function is disabled
  7044                           ;	PRLOCKED One-Way Set Enable bit
  7045                           ;	PR1WAY = ON, PRLOCK bit can be cleared and set only once
  7046                           ;	Clock Switch Enable bit
  7047                           ;	CSWEN = ON, Writing to NOSC and NDIV is allowed
  7048                           ;	Fail-Safe Clock Monitor Enable bit
  7049                           ;	FCMEN = ON, Fail-Safe Clock Monitor enabled
  7050   300001                     	org	3145729
  7051   300001  FF                 	db	255
  7052                           
  7053                           ;Config register CONFIG2L @ 0x300002
  7054                           ;	MCLR Enable bit
  7055                           ;	MCLRE = EXTMCLR, If LVP = 0, MCLR pin is MCLR; If LVP = 1, RE3 pin function is MCLR
  7056                           ;	Power-up timer selection bits
  7057                           ;	PWRTS = PWRT_OFF, PWRT is disabled
  7058                           ;	Multi-vector enable bit
  7059                           ;	MVECEN = OFF, Interrupt contoller does not use vector table to prioritze interrupts
  7060                           ;	IVTLOCK bit One-way set enable bit
  7061                           ;	IVT1WAY = ON, IVTLOCK bit can be cleared and set only once
  7062                           ;	Low Power BOR Enable bit
  7063                           ;	LPBOREN = OFF, ULPBOR disabled
  7064                           ;	Brown-out Reset Enable bits
  7065                           ;	BOREN = SBORDIS, Brown-out Reset enabled , SBOREN bit is ignored
  7066   300002                     	org	3145730
  7067   300002  F7                 	db	247
  7068                           
  7069                           ;Config register CONFIG2H @ 0x300003
  7070                           ;	Brown-out Reset Voltage Selection bits
  7071                           ;	BORV = VBOR_2P45, Brown-out Reset Voltage (VBOR) set to 2.45V
  7072                           ;	ZCD Disable bit
  7073                           ;	ZCD = OFF, ZCD disabled. ZCD can be enabled by setting the ZCDSEN bit of ZCDCON
  7074                           ;	PPSLOCK bit One-Way Set Enable bit
  7075                           ;	PPS1WAY = ON, PPSLOCK bit can be cleared and set only once; PPS registers remain locke
      +                          d after one clear/set cycle
  7076                           ;	Stack Full/Underflow Reset Enable bit
  7077                           ;	STVREN = ON, Stack full/underflow will cause Reset
  7078                           ;	Debugger Enable bit
  7079                           ;	DEBUG = OFF, Background debugger disabled
  7080                           ;	Extended Instruction Set Enable bit
  7081                           ;	XINST = OFF, Extended Instruction Set and Indexed Addressing Mode disabled
  7082   300003                     	org	3145731
  7083   300003  FF                 	db	255
  7084                           
  7085                           ;Config register CONFIG3L @ 0x300004
  7086                           ;	WDT Period selection bits
  7087                           ;	WDTCPS = WDTCPS_31, Divider ratio 1:65536; software control of WDTPS
  7088                           ;	WDT operating mode
  7089                           ;	WDTE = OFF, WDT Disabled; SWDTEN is ignored
  7090   300004                     	org	3145732
  7091   300004  9F                 	db	159
  7092                           
  7093                           ;Config register CONFIG3H @ 0x300005
  7094                           ;	WDT Window Select bits
  7095                           ;	WDTCWS = WDTCWS_7, window always open (100%); software control; keyed access not requi
      +                          red
  7096                           ;	WDT input clock selector
  7097                           ;	WDTCCS = SC, Software Control
  7098   300005                     	org	3145733
  7099   300005  FF                 	db	255
  7100                           
  7101                           ;Config register CONFIG4L @ 0x300006
  7102                           ;	Boot Block Size selection bits
  7103                           ;	BBSIZE = BBSIZE_512, Boot Block size is 512 words
  7104                           ;	Boot Block enable bit
  7105                           ;	BBEN = OFF, Boot block disabled
  7106                           ;	Storage Area Flash enable bit
  7107                           ;	SAFEN = OFF, SAF disabled
  7108                           ;	Application Block write protection bit
  7109                           ;	WRTAPP = OFF, Application Block not write protected
  7110   300006                     	org	3145734
  7111   300006  FF                 	db	255
  7112                           
  7113                           ;Config register CONFIG4H @ 0x300007
  7114                           ;	Boot Block Write Protection bit
  7115                           ;	WRTB = OFF, Boot Block not write-protected
  7116                           ;	Configuration Register Write Protection bit
  7117                           ;	WRTC = OFF, Configuration registers not write-protected
  7118                           ;	Data EEPROM Write Protection bit
  7119                           ;	WRTD = OFF, Data EEPROM not write-protected
  7120                           ;	SAF Write protection bit
  7121                           ;	WRTSAF = OFF, SAF not Write Protected
  7122                           ;	Low Voltage Programming Enable bit
  7123                           ;	LVP = ON, Low voltage programming enabled. MCLR/VPP pin function is MCLR. MCLRE config
      +                          uration bit is ignored
  7124   300007                     	org	3145735
  7125   300007  FF                 	db	255
  7126                           
  7127                           ;Config register CONFIG5L @ 0x300008
  7128                           ;	PFM and Data EEPROM Code Protection bit
  7129                           ;	CP = OFF, PFM and Data EEPROM code protection disabled
  7130   300008                     	org	3145736
  7131   300008  FF                 	db	255
  7132                           
  7133                           ;Config register CONFIG5H @ 0x300009
  7134                           ;	unspecified, using default values
  7135   300009                     	org	3145737
  7136   300009  FF                 	db	255
  7137                           tosu	equ	0x3FFF
  7138                           tosh	equ	0x3FFE
  7139                           tosl	equ	0x3FFD
  7140                           stkptr	equ	0x3FFC
  7141                           pclatu	equ	0x3FFB
  7142                           pclath	equ	0x3FFA
  7143                           pcl	equ	0x3FF9
  7144                           tblptru	equ	0x3FF8
  7145                           tblptrh	equ	0x3FF7
  7146                           tblptrl	equ	0x3FF6
  7147                           tablat	equ	0x3FF5
  7148                           prodh	equ	0x3FF4
  7149                           prodl	equ	0x3FF3
  7150                           indf0	equ	0x3FEF
  7151                           postinc0	equ	0x3FEE
  7152                           postdec0	equ	0x3FED
  7153                           preinc0	equ	0x3FEC
  7154                           plusw0	equ	0x3FEB
  7155                           fsr0h	equ	0x3FEA
  7156                           fsr0l	equ	0x3FE9
  7157                           wreg	equ	0x3FE8
  7158                           indf1	equ	0x3FE7
  7159                           postinc1	equ	0x3FE6
  7160                           postdec1	equ	0x3FE5
  7161                           preinc1	equ	0x3FE4
  7162                           plusw1	equ	0x3FE3
  7163                           fsr1h	equ	0x3FE2
  7164                           fsr1l	equ	0x3FE1
  7165                           bsr	equ	0x3FE0
  7166                           indf2	equ	0x3FDF
  7167                           postinc2	equ	0x3FDE
  7168                           postdec2	equ	0x3FDD
  7169                           preinc2	equ	0x3FDC
  7170                           plusw2	equ	0x3FDB
  7171                           fsr2h	equ	0x3FDA
  7172                           fsr2l	equ	0x3FD9
  7173                           status	equ	0x3FD8

Data Sizes:
    Strings     117
    Constant    38
    Data        0
    BSS         74
    Persistent  6
    Stack       0

Auto Spaces:
    Space          Size  Autos    Used
    COMRAM           95     45      93
    BANK0           160     52      84
    BANK1           256      0       0
    BANK2           256      0       0
    BANK3           256      0       0
    BANK4           256      0       0
    BANK5           256      0       0
    BANK6           256      0       0
    BANK7           256      0       0
    BANK8           256      0       0
    BANK9           256      0       0
    BANK10          256      0       0
    BANK11          256      0       0
    BANK12          256      0       0
    BANK13          256      0       0
    BANK14          256      0       0
    BANK15          256      0       0

Pointer List with Targets:

    bufferBlock$data	PTR unsigned char  size(1) Largest target is 12
		 -> MPU6050_ReadSensorData@buffer(COMRAM[12]), 

    cb$0	PTR void  size(2) Largest target is 5
		 -> I2C1_Read1ByteRegister@returnValue(COMRAM[1]), I2C1_Read2ByteRegister@returnValue(COMRAM[2]), I2C1_ReadDataBlock@bufferBlock(COMRAM[3]), I2C1_Write1ByteRegister@data(COMRAM[1]), 
		 -> I2C1_Write2ByteRegister@data(COMRAM[2]), NULL(NULL[0]), 

    cb$0	PTR void  size(2) Largest target is 5
		 -> I2C1_Read1ByteRegister@returnValue(COMRAM[1]), I2C1_Read2ByteRegister@returnValue(COMRAM[2]), I2C1_ReadDataBlock@bufferBlock(COMRAM[3]), I2C1_Write1ByteRegister@data(COMRAM[1]), 
		 -> I2C1_Write2ByteRegister@data(COMRAM[2]), NULL(NULL[0]), 

    f$.$buffer	PTR unsigned char  size(2) Largest target is 0

    f$.$source	PTR const unsigned char  size(2) Largest target is 0

    fputc@fp	PTR struct _IO_FILE size(1) Largest target is 12
		 -> sprintf@f(COMRAM[12]), 

    fputc@fp$.$buffer	PTR unsigned char  size(2) Largest target is 0

    fputc@fp$.$source	PTR const unsigned char  size(2) Largest target is 0

    I2C1_CallbackReturnReset@funPtr	PTR void  size(2) Largest target is 5
		 -> I2C1_Read1ByteRegister@returnValue(COMRAM[1]), I2C1_Read2ByteRegister@returnValue(COMRAM[2]), I2C1_ReadDataBlock@bufferBlock(COMRAM[3]), I2C1_Write1ByteRegister@data(COMRAM[1]), 
		 -> I2C1_Write2ByteRegister@data(COMRAM[2]), NULL(NULL[0]), 

    I2C1_CallbackReturnStop@funPtr	PTR void  size(2) Largest target is 5
		 -> I2C1_Read1ByteRegister@returnValue(COMRAM[1]), I2C1_Read2ByteRegister@returnValue(COMRAM[2]), I2C1_ReadDataBlock@bufferBlock(COMRAM[3]), I2C1_Write1ByteRegister@data(COMRAM[1]), 
		 -> I2C1_Write2ByteRegister@data(COMRAM[2]), NULL(NULL[0]), 

    I2C1_DO_RX_EMPTY$2202	PTR FTN(PTR void ,)enum E363 size(2) Largest target is 1
		 -> I2C1_CallbackReturnReset(), I2C1_CallbackReturnStop(), rd1RegCompleteHandler(), rd2RegCompleteHandler(), 
		 -> rdBlkRegCompleteHandler(), wr1RegCompleteHandler(), wr2RegCompleteHandler(), NULL(), 

    I2C1_DO_RX_EMPTY$2202$0	PTR void  size(2) Largest target is 5
		 -> I2C1_Read1ByteRegister@returnValue(COMRAM[1]), I2C1_Read2ByteRegister@returnValue(COMRAM[2]), I2C1_ReadDataBlock@bufferBlock(COMRAM[3]), I2C1_Write1ByteRegister@data(COMRAM[1]), 
		 -> I2C1_Write2ByteRegister@data(COMRAM[2]), NULL(NULL[0]), 

    I2C1_DO_RX_EMPTY$2207	PTR void  size(2) Largest target is 5
		 -> I2C1_Read1ByteRegister@returnValue(COMRAM[1]), I2C1_Read2ByteRegister@returnValue(COMRAM[2]), I2C1_ReadDataBlock@bufferBlock(COMRAM[3]), I2C1_Write1ByteRegister@data(COMRAM[1]), 
		 -> I2C1_Write2ByteRegister@data(COMRAM[2]), NULL(NULL[0]), 

    I2C1_DO_TX$2190	PTR FTN(PTR void ,)enum E363 size(2) Largest target is 1
		 -> I2C1_CallbackReturnReset(), I2C1_CallbackReturnStop(), rd1RegCompleteHandler(), rd2RegCompleteHandler(), 
		 -> rdBlkRegCompleteHandler(), wr1RegCompleteHandler(), wr2RegCompleteHandler(), NULL(), 

    I2C1_DO_TX$2190$0	PTR void  size(2) Largest target is 5
		 -> I2C1_Read1ByteRegister@returnValue(COMRAM[1]), I2C1_Read2ByteRegister@returnValue(COMRAM[2]), I2C1_ReadDataBlock@bufferBlock(COMRAM[3]), I2C1_Write1ByteRegister@data(COMRAM[1]), 
		 -> I2C1_Write2ByteRegister@data(COMRAM[2]), NULL(NULL[0]), 

    I2C1_DO_TX$2195	PTR void  size(2) Largest target is 5
		 -> I2C1_Read1ByteRegister@returnValue(COMRAM[1]), I2C1_Read2ByteRegister@returnValue(COMRAM[2]), I2C1_ReadDataBlock@bufferBlock(COMRAM[3]), I2C1_Write1ByteRegister@data(COMRAM[1]), 
		 -> I2C1_Write2ByteRegister@data(COMRAM[2]), NULL(NULL[0]), 

    I2C1_DO_TX_EMPTY$2196	PTR FTN(PTR void ,)enum E363 size(2) Largest target is 1
		 -> I2C1_CallbackReturnReset(), I2C1_CallbackReturnStop(), rd1RegCompleteHandler(), rd2RegCompleteHandler(), 
		 -> rdBlkRegCompleteHandler(), wr1RegCompleteHandler(), wr2RegCompleteHandler(), NULL(), 

    I2C1_DO_TX_EMPTY$2196$0	PTR void  size(2) Largest target is 5
		 -> I2C1_Read1ByteRegister@returnValue(COMRAM[1]), I2C1_Read2ByteRegister@returnValue(COMRAM[2]), I2C1_ReadDataBlock@bufferBlock(COMRAM[3]), I2C1_Write1ByteRegister@data(COMRAM[1]), 
		 -> I2C1_Write2ByteRegister@data(COMRAM[2]), NULL(NULL[0]), 

    I2C1_DO_TX_EMPTY$2201	PTR void  size(2) Largest target is 5
		 -> I2C1_Read1ByteRegister@returnValue(COMRAM[1]), I2C1_Read2ByteRegister@returnValue(COMRAM[2]), I2C1_ReadDataBlock@bufferBlock(COMRAM[3]), I2C1_Write1ByteRegister@data(COMRAM[1]), 
		 -> I2C1_Write2ByteRegister@data(COMRAM[2]), NULL(NULL[0]), 

    i2c1_fsmStateTable	const PTR FTN()enum E16630[19] size(2) Largest target is 1
		 -> I2C1_DO_ADDRESS_NACK(), I2C1_DO_BUS_COLLISION(), I2C1_DO_BUS_ERROR(), I2C1_DO_IDLE(), 
		 -> I2C1_DO_RESET(), I2C1_DO_RX(), I2C1_DO_RX_ACK(), I2C1_DO_RX_EMPTY(), 
		 -> I2C1_DO_RX_NACK_RESTART(), I2C1_DO_RX_NACK_STOP(), I2C1_DO_SEND_ADR_READ(), I2C1_DO_SEND_ADR_WRITE(), 
		 -> I2C1_DO_SEND_RESTART(), I2C1_DO_SEND_RESTART_READ(), I2C1_DO_SEND_RESTART_WRITE(), I2C1_DO_SEND_STOP(), 
		 -> I2C1_DO_TX(), I2C1_DO_TX_ACK(), I2C1_DO_TX_EMPTY(), 

    I2C1_MasterFsm$2189	const PTR FTN()enum E16630 size(2) Largest target is 1
		 -> I2C1_DO_ADDRESS_NACK(), I2C1_DO_BUS_COLLISION(), I2C1_DO_BUS_ERROR(), I2C1_DO_IDLE(), 
		 -> I2C1_DO_RESET(), I2C1_DO_RX(), I2C1_DO_RX_ACK(), I2C1_DO_RX_EMPTY(), 
		 -> I2C1_DO_RX_NACK_RESTART(), I2C1_DO_RX_NACK_STOP(), I2C1_DO_SEND_ADR_READ(), I2C1_DO_SEND_ADR_WRITE(), 
		 -> I2C1_DO_SEND_RESTART(), I2C1_DO_SEND_RESTART_READ(), I2C1_DO_SEND_RESTART_WRITE(), I2C1_DO_SEND_STOP(), 
		 -> I2C1_DO_TX(), I2C1_DO_TX_ACK(), I2C1_DO_TX_EMPTY(), 

    I2C1_Read1ByteRegister@returnValue$data	PTR unsigned char  size(1) Largest target is 12
		 -> MPU6050_ReadSensorData@buffer(COMRAM[12]), 

    I2C1_Read2ByteRegister@returnValue$data	PTR unsigned char  size(1) Largest target is 12
		 -> MPU6050_ReadSensorData@buffer(COMRAM[12]), 

    I2C1_ReadNBytes@data	PTR unsigned char  size(1) Largest target is 1
		 -> EEPROM_ReadByte@data(COMRAM[1]), 

    I2C1_SetAddressNackCallback@cb	PTR FTN(PTR void ,)enum E363 size(2) Largest target is 1
		 -> NULL(), 

    I2C1_SetAddressNackCallback@ptr	PTR void  size(2) Largest target is 0
		 -> NULL(NULL[0]), 

    I2C1_SetBuffer@buffer	PTR void  size(2) Largest target is 12
		 -> EEPROM_ReadByte@addressBuffer(COMRAM[2]), EEPROM_ReadByte@data(COMRAM[1]), EEPROM_WriteByte@buffer(COMRAM[3]), I2C1_Read1ByteRegister@reg(COMRAM[1]), 
		 -> I2C1_Read1ByteRegister@returnValue(COMRAM[1]), I2C1_Read2ByteRegister@reg(COMRAM[1]), I2C1_Read2ByteRegister@returnValue(COMRAM[2]), I2C1_ReadDataBlock@bufferBlock(COMRAM[3]), 
		 -> I2C1_ReadDataBlock@reg(COMRAM[1]), I2C1_Write1ByteRegister@data(COMRAM[1]), I2C1_Write1ByteRegister@reg(COMRAM[1]), I2C1_Write2ByteRegister@data(COMRAM[2]), 
		 -> I2C1_Write2ByteRegister@reg(COMRAM[1]), MPU6050_ReadSensorData@buffer(COMRAM[12]), NULL(NULL[0]), 

    I2C1_SetCallback@cb	PTR FTN(PTR void ,)enum E363 size(2) Largest target is 1
		 -> rd1RegCompleteHandler(), rd2RegCompleteHandler(), rdBlkRegCompleteHandler(), wr1RegCompleteHandler(), 
		 -> wr2RegCompleteHandler(), NULL(), 

    I2C1_SetCallback@ptr	PTR void  size(2) Largest target is 5
		 -> I2C1_Read1ByteRegister@returnValue(COMRAM[1]), I2C1_Read2ByteRegister@returnValue(COMRAM[2]), I2C1_ReadDataBlock@bufferBlock(COMRAM[3]), I2C1_Write1ByteRegister@data(COMRAM[1]), 
		 -> I2C1_Write2ByteRegister@data(COMRAM[2]), NULL(NULL[0]), 

    I2C1_SetDataCompleteCallback@cb	PTR FTN(PTR void ,)enum E363 size(2) Largest target is 1
		 -> rd1RegCompleteHandler(), rd2RegCompleteHandler(), rdBlkRegCompleteHandler(), wr1RegCompleteHandler(), 
		 -> wr2RegCompleteHandler(), NULL(), 

    I2C1_SetDataCompleteCallback@ptr	PTR void  size(2) Largest target is 5
		 -> I2C1_Read1ByteRegister@returnValue(COMRAM[1]), I2C1_Read2ByteRegister@returnValue(COMRAM[2]), I2C1_ReadDataBlock@bufferBlock(COMRAM[3]), I2C1_Write1ByteRegister@data(COMRAM[1]), 
		 -> I2C1_Write2ByteRegister@data(COMRAM[2]), NULL(NULL[0]), 

    I2C1_Status$callbackPayload	PTR void [6] size(2) Largest target is 5
		 -> I2C1_Read1ByteRegister@returnValue(COMRAM[1]), I2C1_Read2ByteRegister@returnValue(COMRAM[2]), I2C1_ReadDataBlock@bufferBlock(COMRAM[3]), I2C1_Write1ByteRegister@data(COMRAM[1]), 
		 -> I2C1_Write2ByteRegister@data(COMRAM[2]), NULL(NULL[0]), 

    I2C1_Status$callbackTable	PTR FTN(PTR void ,)enum E363[6] size(2) Largest target is 1
		 -> I2C1_CallbackReturnReset(), I2C1_CallbackReturnStop(), rd1RegCompleteHandler(), rd2RegCompleteHandler(), 
		 -> rdBlkRegCompleteHandler(), wr1RegCompleteHandler(), wr2RegCompleteHandler(), NULL(), 

    I2C1_Status$data_ptr	PTR unsigned char  size(2) Largest target is 12
		 -> EEPROM_ReadByte@addressBuffer(COMRAM[2]), EEPROM_ReadByte@data(COMRAM[1]), EEPROM_WriteByte@buffer(COMRAM[3]), I2C1_Read1ByteRegister@reg(COMRAM[1]), 
		 -> I2C1_Read1ByteRegister@returnValue(COMRAM[1]), I2C1_Read2ByteRegister@reg(COMRAM[1]), I2C1_Read2ByteRegister@returnValue(COMRAM[2]), I2C1_ReadDataBlock@bufferBlock(COMRAM[3]), 
		 -> I2C1_ReadDataBlock@reg(COMRAM[1]), I2C1_Write1ByteRegister@data(COMRAM[1]), I2C1_Write1ByteRegister@reg(COMRAM[1]), I2C1_Write2ByteRegister@data(COMRAM[2]), 
		 -> I2C1_Write2ByteRegister@reg(COMRAM[1]), MPU6050_ReadSensorData@buffer(COMRAM[12]), NULL(NULL[0]), 

    I2C1_Write1ByteRegister@data$data	PTR unsigned char  size(1) Largest target is 12
		 -> MPU6050_ReadSensorData@buffer(COMRAM[12]), 

    I2C1_Write2ByteRegister@data$data	PTR unsigned char  size(1) Largest target is 12
		 -> MPU6050_ReadSensorData@buffer(COMRAM[12]), 

    I2C1_WriteNBytes@data	PTR unsigned char  size(1) Largest target is 3
		 -> EEPROM_ReadByte@addressBuffer(COMRAM[2]), EEPROM_WriteByte@buffer(COMRAM[3]), 

    NULL$0	PTR void  size(2) Largest target is 5
		 -> I2C1_Read1ByteRegister@returnValue(COMRAM[1]), I2C1_Read2ByteRegister@returnValue(COMRAM[2]), I2C1_ReadDataBlock@bufferBlock(COMRAM[3]), I2C1_Write1ByteRegister@data(COMRAM[1]), 
		 -> I2C1_Write2ByteRegister@data(COMRAM[2]), NULL(NULL[0]), 

    rd1RegCompleteHandler@ptr	PTR void  size(2) Largest target is 5
		 -> I2C1_Read1ByteRegister@returnValue(COMRAM[1]), I2C1_Read2ByteRegister@returnValue(COMRAM[2]), I2C1_ReadDataBlock@bufferBlock(COMRAM[3]), I2C1_Write1ByteRegister@data(COMRAM[1]), 
		 -> I2C1_Write2ByteRegister@data(COMRAM[2]), NULL(NULL[0]), 

    rd2RegCompleteHandler@ptr	PTR void  size(2) Largest target is 5
		 -> I2C1_Read1ByteRegister@returnValue(COMRAM[1]), I2C1_Read2ByteRegister@returnValue(COMRAM[2]), I2C1_ReadDataBlock@bufferBlock(COMRAM[3]), I2C1_Write1ByteRegister@data(COMRAM[1]), 
		 -> I2C1_Write2ByteRegister@data(COMRAM[2]), NULL(NULL[0]), 

    rdBlkRegCompleteHandler@ptr	PTR void  size(2) Largest target is 5
		 -> I2C1_Read1ByteRegister@returnValue(COMRAM[1]), I2C1_Read2ByteRegister@returnValue(COMRAM[2]), I2C1_ReadDataBlock@bufferBlock(COMRAM[3]), I2C1_Write1ByteRegister@data(COMRAM[1]), 
		 -> I2C1_Write2ByteRegister@data(COMRAM[2]), NULL(NULL[0]), 

    rdBlkRegCompleteHandler@ptr$data	PTR unsigned char  size(1) Largest target is 12
		 -> MPU6050_ReadSensorData@buffer(COMRAM[12]), 

    S1810$buffer	PTR unsigned char  size(2) Largest target is 0

    S1810$source	PTR const unsigned char  size(2) Largest target is 0

    S499$0$0	PTR void  size(2) Largest target is 5
		 -> I2C1_Read1ByteRegister@returnValue(COMRAM[1]), I2C1_Read2ByteRegister@returnValue(COMRAM[2]), I2C1_ReadDataBlock@bufferBlock(COMRAM[3]), I2C1_Write1ByteRegister@data(COMRAM[1]), 
		 -> I2C1_Write2ByteRegister@data(COMRAM[2]), NULL(NULL[0]), 

    S499$callbackPayload	PTR void [6] size(2) Largest target is 5
		 -> I2C1_Read1ByteRegister@returnValue(COMRAM[1]), I2C1_Read2ByteRegister@returnValue(COMRAM[2]), I2C1_ReadDataBlock@bufferBlock(COMRAM[3]), I2C1_Write1ByteRegister@data(COMRAM[1]), 
		 -> I2C1_Write2ByteRegister@data(COMRAM[2]), NULL(NULL[0]), 

    S499$callbackTable	PTR FTN(PTR void ,)enum E363[6] size(2) Largest target is 1
		 -> I2C1_CallbackReturnReset(), I2C1_CallbackReturnStop(), rd1RegCompleteHandler(), rd2RegCompleteHandler(), 
		 -> rdBlkRegCompleteHandler(), wr1RegCompleteHandler(), wr2RegCompleteHandler(), NULL(), 

    S499$data_ptr	PTR unsigned char  size(2) Largest target is 12
		 -> EEPROM_ReadByte@addressBuffer(COMRAM[2]), EEPROM_ReadByte@data(COMRAM[1]), EEPROM_WriteByte@buffer(COMRAM[3]), I2C1_Read1ByteRegister@reg(COMRAM[1]), 
		 -> I2C1_Read1ByteRegister@returnValue(COMRAM[1]), I2C1_Read2ByteRegister@reg(COMRAM[1]), I2C1_Read2ByteRegister@returnValue(COMRAM[2]), I2C1_ReadDataBlock@bufferBlock(COMRAM[3]), 
		 -> I2C1_ReadDataBlock@reg(COMRAM[1]), I2C1_Write1ByteRegister@data(COMRAM[1]), I2C1_Write1ByteRegister@reg(COMRAM[1]), I2C1_Write2ByteRegister@data(COMRAM[2]), 
		 -> I2C1_Write2ByteRegister@reg(COMRAM[1]), MPU6050_ReadSensorData@buffer(COMRAM[12]), NULL(NULL[0]), 

    S96$data	PTR unsigned char  size(1) Largest target is 12
		 -> MPU6050_ReadSensorData@buffer(COMRAM[12]), 

    sprintf@ap	PTR void [1] size(1) Largest target is 2
		 -> ?_sprintf(COMRAM[2]), 

    sprintf@fmt	PTR const unsigned char  size(1) Largest target is 15
		 -> STR_4(CODE[15]), 

    sprintf@s	PTR unsigned char  size(1) Largest target is 50
		 -> main@buffer(BANK0[50]), 

    UART1_ErrorHandler	PTR FTN()void  size(2) Largest target is 1
		 -> UART1_DefaultErrorHandler(), NULL(), 

    UART1_FramingErrorHandler	PTR FTN()void  size(2) Largest target is 1
		 -> UART1_DefaultFramingErrorHandler(), NULL(), 

    UART1_OverrunErrorHandler	PTR FTN()void  size(2) Largest target is 1
		 -> UART1_DefaultOverrunErrorHandler(), NULL(), 

    UART1_SetErrorHandler@interruptHandler	PTR FTN()void  size(2) Largest target is 1
		 -> UART1_DefaultErrorHandler(), 

    UART1_SetFramingErrorHandler@interruptHandler	PTR FTN()void  size(2) Largest target is 1
		 -> UART1_DefaultFramingErrorHandler(), 

    UART1_SetOverrunErrorHandler@interruptHandler	PTR FTN()void  size(2) Largest target is 1
		 -> UART1_DefaultOverrunErrorHandler(), 

    UART_SendString@str	PTR const unsigned char  size(2) Largest target is 50
		 -> main@buffer(BANK0[50]), STR_1(CODE[25]), STR_2(CODE[29]), STR_3(CODE[25]), 
		 -> STR_5(CODE[23]), 

    vfpfcnvrt@ap	PTR PTR void  size(1) Largest target is 1
		 -> sprintf@ap(COMRAM[1]), 

    vfpfcnvrt@cp	PTR unsigned char  size(1) Largest target is 15
		 -> STR_4(CODE[15]), 

    vfpfcnvrt@fmt	PTR PTR unsigned char  size(1) Largest target is 1
		 -> vfprintf@cfmt(COMRAM[1]), 

    vfpfcnvrt@fp	PTR struct _IO_FILE size(1) Largest target is 12
		 -> sprintf@f(COMRAM[12]), 

    vfprintf@ap	PTR PTR void  size(1) Largest target is 1
		 -> sprintf@ap(COMRAM[1]), 

    vfprintf@cfmt	PTR unsigned char  size(1) Largest target is 15
		 -> STR_4(CODE[15]), 

    vfprintf@fmt	PTR const unsigned char  size(1) Largest target is 15
		 -> STR_4(CODE[15]), 

    vfprintf@fp	PTR struct _IO_FILE size(1) Largest target is 12
		 -> sprintf@f(COMRAM[12]), 

    wr1RegCompleteHandler@ptr	PTR void  size(2) Largest target is 5
		 -> I2C1_Read1ByteRegister@returnValue(COMRAM[1]), I2C1_Read2ByteRegister@returnValue(COMRAM[2]), I2C1_ReadDataBlock@bufferBlock(COMRAM[3]), I2C1_Write1ByteRegister@data(COMRAM[1]), 
		 -> I2C1_Write2ByteRegister@data(COMRAM[2]), NULL(NULL[0]), 

    wr2RegCompleteHandler@ptr	PTR void  size(2) Largest target is 5
		 -> I2C1_Read1ByteRegister@returnValue(COMRAM[1]), I2C1_Read2ByteRegister@returnValue(COMRAM[2]), I2C1_ReadDataBlock@bufferBlock(COMRAM[3]), I2C1_Write1ByteRegister@data(COMRAM[1]), 
		 -> I2C1_Write2ByteRegister@data(COMRAM[2]), NULL(NULL[0]), 


Critical Paths under _main in COMRAM

    _main->_sprintf
    _sprintf->_vfprintf
    _vfprintf->_vfpfcnvrt
    _vfpfcnvrt->_fputc
    _fputc->_putch
    _putch->_UART1_Write
    _UART_SendString->_UART1_Write
    _UART1_Initialize->_UART1_SetErrorHandler
    _UART1_Initialize->_UART1_SetFramingErrorHandler
    _UART1_Initialize->_UART1_SetOverrunErrorHandler
    _EEPROM_WriteByte->_I2C1_WriteNBytes
    _EEPROM_ReadByte->_I2C1_ReadNBytes
    _EEPROM_ReadByte->_I2C1_WriteNBytes
    _I2C1_SetAddressNackCallback->_I2C1_SetCallback
    _I2C1_MasterWrite->_I2C1_MasterOperation
    _I2C1_MasterRead->_I2C1_MasterOperation
    _I2C1_Poller->_I2C1_MasterFsm
    _I2C1_MasterFsm->_I2C1_DO_TX
    _I2C1_DO_TX->_rdBlkRegCompleteHandler
    _I2C1_DO_TX_EMPTY->_rdBlkRegCompleteHandler
    _I2C1_DO_SEND_STOP->_I2C1_MasterSendTxData
    _I2C1_DO_SEND_STOP->_I2C1_MasterSetCounter
    _I2C1_DO_RX->_I2C1_DO_RX_EMPTY
    _I2C1_DO_BUS_COLLISION->_rdBlkRegCompleteHandler
    _I2C1_DO_SEND_RESTART_READ->_I2C1_MasterSetCounter
    _I2C1_DO_RX_EMPTY->_rdBlkRegCompleteHandler
    _I2C1_DO_ADDRESS_NACK->_rdBlkRegCompleteHandler
    _wr2RegCompleteHandler->_I2C1_SetDataCompleteCallback
    _wr1RegCompleteHandler->_I2C1_SetDataCompleteCallback
    _rdBlkRegCompleteHandler->_I2C1_SetDataCompleteCallback
    _rd2RegCompleteHandler->_I2C1_SetDataCompleteCallback
    _rd1RegCompleteHandler->_I2C1_SetDataCompleteCallback
    _I2C1_SetDataCompleteCallback->_I2C1_SetCallback

Critical Paths under _main in BANK0

    None.

Critical Paths under _main in BANK1

    None.

Critical Paths under _main in BANK2

    None.

Critical Paths under _main in BANK3

    None.

Critical Paths under _main in BANK4

    None.

Critical Paths under _main in BANK5

    None.

Critical Paths under _main in BANK6

    None.

Critical Paths under _main in BANK7

    None.

Critical Paths under _main in BANK8

    None.

Critical Paths under _main in BANK9

    None.

Critical Paths under _main in BANK10

    None.

Critical Paths under _main in BANK11

    None.

Critical Paths under _main in BANK12

    None.

Critical Paths under _main in BANK13

    None.

Critical Paths under _main in BANK14

    None.

Critical Paths under _main in BANK15

    None.

Call Graph Tables:

 ---------------------------------------------------------------------------------
 (Depth) Function   	        Calls       Base Space   Used Autos Params    Refs
 ---------------------------------------------------------------------------------
 (0) _main                                                54    54      0  812739
                                             43 COMRAM     2     2      0
                                              0 BANK0     52    52      0
                    _EEPROM_ReadByte
                   _EEPROM_WriteByte
                  _SYSTEM_Initialize
                    _UART_SendString
                            _sprintf
 ---------------------------------------------------------------------------------
 (1) _sprintf                                             19    15      4    2225
                                             26 COMRAM    17    13      4
                           _vfprintf
 ---------------------------------------------------------------------------------
 (2) _vfprintf                                             4     1      3    1874
                                             22 COMRAM     4     1      3
                          _vfpfcnvrt
 ---------------------------------------------------------------------------------
 (3) _vfpfcnvrt                                           13    10      3    1524
                                             10 COMRAM    12     9      3
                              _fputc
 ---------------------------------------------------------------------------------
 (4) _fputc                                                8     5      3     826
                                              2 COMRAM     8     5      3
                              _putch
 ---------------------------------------------------------------------------------
 (5) _putch                                                1     1      0      44
                                              1 COMRAM     1     1      0
                        _UART1_Write
 ---------------------------------------------------------------------------------
 (1) _UART_SendString                                      2     0      2     447
                                              1 COMRAM     2     0      2
                        _UART1_Write
 ---------------------------------------------------------------------------------
 (6) _UART1_Write                                          1     1      0      22
                                              0 COMRAM     1     1      0
 ---------------------------------------------------------------------------------
 (1) _SYSTEM_Initialize                                    0     0      0     294
                    _I2C1_Initialize
              _OSCILLATOR_Initialize
             _PIN_MANAGER_Initialize
                     _PMD_Initialize
                   _UART1_Initialize
 ---------------------------------------------------------------------------------
 (2) _UART1_Initialize                                     0     0      0     294
              _UART1_SetErrorHandler
       _UART1_SetFramingErrorHandler
       _UART1_SetOverrunErrorHandler
 ---------------------------------------------------------------------------------
 (3) _UART1_SetOverrunErrorHandler                         2     0      2      98
                                              0 COMRAM     2     0      2
 ---------------------------------------------------------------------------------
 (3) _UART1_SetFramingErrorHandler                         2     0      2      98
                                              0 COMRAM     2     0      2
 ---------------------------------------------------------------------------------
 (3) _UART1_SetErrorHandler                                2     0      2      98
                                              0 COMRAM     2     0      2
 ---------------------------------------------------------------------------------
 (2) _PMD_Initialize                                       0     0      0       0
 ---------------------------------------------------------------------------------
 (2) _PIN_MANAGER_Initialize                               0     0      0       0
 ---------------------------------------------------------------------------------
 (2) _OSCILLATOR_Initialize                                0     0      0       0
 ---------------------------------------------------------------------------------
 (2) _I2C1_Initialize                                      0     0      0       0
 ---------------------------------------------------------------------------------
 (1) _EEPROM_WriteByte                                     8     5      3  270663
                                             27 COMRAM     8     5      3
                   _I2C1_WriteNBytes
 ---------------------------------------------------------------------------------
 (1) _EEPROM_ReadByte                                      6     4      2  539014
                                             27 COMRAM     6     4      2
                    _I2C1_ReadNBytes
                   _I2C1_WriteNBytes
 ---------------------------------------------------------------------------------
 (2) _I2C1_WriteNBytes                                     4     1      3  270347
                                             23 COMRAM     4     1      3
                         _I2C1_Close
                   _I2C1_MasterWrite
                          _I2C1_Open
        _I2C1_SetAddressNackCallback
                     _I2C1_SetBuffer
 ---------------------------------------------------------------------------------
 (3) _I2C1_SetAddressNackCallback                          4     0      4    1870
                                              5 COMRAM     4     0      4
                   _I2C1_SetCallback
 ---------------------------------------------------------------------------------
 (3) _I2C1_MasterWrite                                     0     0      0  266169
               _I2C1_MasterOperation
 ---------------------------------------------------------------------------------
 (2) _I2C1_ReadNBytes                                      4     1      3  268325
                                             23 COMRAM     4     1      3
                         _I2C1_Close
                    _I2C1_MasterRead
                          _I2C1_Open
                     _I2C1_SetBuffer
 ---------------------------------------------------------------------------------
 (3) _I2C1_Open                                            2     2      0      46
                                              0 COMRAM     2     2      0
                _I2C1_MasterClearIrq
                    _I2C1_MasterOpen
 ---------------------------------------------------------------------------------
 (4) _I2C1_MasterOpen                                      0     0      0       0
 ---------------------------------------------------------------------------------
 (3) _I2C1_MasterRead                                      0     0      0  266169
               _I2C1_MasterOperation
 ---------------------------------------------------------------------------------
 (4) _I2C1_MasterOperation                                 2     2      0  266169
                                             21 COMRAM     2     2      0
              _I2C1_DO_SEND_ADR_READ
             _I2C1_DO_SEND_ADR_WRITE
              _I2C1_MasterSetCounter
                        _I2C1_Poller
 ---------------------------------------------------------------------------------
 (5) _I2C1_Poller                                          0     0      0  243908
                     _I2C1_MasterFsm
            _I2C1_MasterWaitForEvent
 ---------------------------------------------------------------------------------
 (6) _I2C1_MasterWaitForEvent                              0     0      0       0
 ---------------------------------------------------------------------------------
 (6) _I2C1_MasterFsm                                       3     3      0  243908
                                             18 COMRAM     3     3      0
           _I2C1_ClearInterruptFlags
               _I2C1_DO_ADDRESS_NACK *
              _I2C1_DO_BUS_COLLISION *
                  _I2C1_DO_BUS_ERROR *
                       _I2C1_DO_IDLE *
                      _I2C1_DO_RESET *
                         _I2C1_DO_RX *
                     _I2C1_DO_RX_ACK *
                   _I2C1_DO_RX_EMPTY *
            _I2C1_DO_RX_NACK_RESTART *
               _I2C1_DO_RX_NACK_STOP *
              _I2C1_DO_SEND_ADR_READ *
             _I2C1_DO_SEND_ADR_WRITE *
               _I2C1_DO_SEND_RESTART *
          _I2C1_DO_SEND_RESTART_READ *
         _I2C1_DO_SEND_RESTART_WRITE *
                  _I2C1_DO_SEND_STOP *
                         _I2C1_DO_TX *
                     _I2C1_DO_TX_ACK *
                   _I2C1_DO_TX_EMPTY *
                  _I2C1_MasterIsNack
 ---------------------------------------------------------------------------------
 (7) _I2C1_DO_TX_ACK                                       0     0      0       0
                 _I2C1_MasterSendAck
 ---------------------------------------------------------------------------------
 (7) _I2C1_DO_TX                                           6     6      0   66561
                                             12 COMRAM     6     6      0
                                NULL *
           _I2C1_CallbackReturnReset *
            _I2C1_CallbackReturnStop *
          _I2C1_DO_SEND_RESTART_READ
         _I2C1_DO_SEND_RESTART_WRITE
                   _I2C1_DO_TX_EMPTY
                  _I2C1_MasterIsNack
            _I2C1_MasterIsTxBufEmpty
              _I2C1_MasterSendTxData
              _rd1RegCompleteHandler *
              _rd2RegCompleteHandler *
            _rdBlkRegCompleteHandler *
              _wr1RegCompleteHandler *
              _wr2RegCompleteHandler *
 ---------------------------------------------------------------------------------
 (8) _I2C1_MasterIsTxBufEmpty                              0     0      0       0
 ---------------------------------------------------------------------------------
 (7) _I2C1_MasterIsNack                                    0     0      0       0
 ---------------------------------------------------------------------------------
 (7) _I2C1_DO_TX_EMPTY                                     2     2      0   22149
                                             12 COMRAM     2     2      0
                                NULL *
           _I2C1_CallbackReturnReset *
            _I2C1_CallbackReturnStop *
          _I2C1_MasterDisableRestart
           _I2C1_MasterEnableRestart
              _I2C1_MasterSetCounter
              _rd1RegCompleteHandler *
              _rd2RegCompleteHandler *
            _rdBlkRegCompleteHandler *
              _wr1RegCompleteHandler *
              _wr2RegCompleteHandler *
 ---------------------------------------------------------------------------------
 (7) _I2C1_DO_SEND_STOP                                    0     0      0      44
              _I2C1_MasterGetCounter
              _I2C1_MasterSendTxData
              _I2C1_MasterSetCounter
                    _I2C1_MasterStop
 ---------------------------------------------------------------------------------
 (8) _I2C1_MasterGetCounter                                0     0      0       0
 ---------------------------------------------------------------------------------
 (7) _I2C1_DO_SEND_ADR_WRITE                               0     0      0      22
              _I2C1_MasterSendTxData
 ---------------------------------------------------------------------------------
 (7) _I2C1_DO_RX_NACK_STOP                                 0     0      0       0
                       _I2C1_DO_IDLE
                _I2C1_MasterSendNack
                    _I2C1_MasterStop
 ---------------------------------------------------------------------------------
 (8) _I2C1_MasterStop                                      0     0      0       0
 ---------------------------------------------------------------------------------
 (8) _I2C1_DO_IDLE                                         0     0      0       0
 ---------------------------------------------------------------------------------
 (7) _I2C1_DO_RX_NACK_RESTART                              0     0      0       0
                _I2C1_MasterSendNack
 ---------------------------------------------------------------------------------
 (8) _I2C1_MasterSendNack                                  0     0      0       0
 ---------------------------------------------------------------------------------
 (7) _I2C1_DO_RX_ACK                                       0     0      0       0
                 _I2C1_MasterSendAck
 ---------------------------------------------------------------------------------
 (8) _I2C1_MasterSendAck                                   0     0      0       0
 ---------------------------------------------------------------------------------
 (7) _I2C1_DO_RX                                           3     3      0   22172
                                             14 COMRAM     3     3      0
                   _I2C1_DO_RX_EMPTY
               _I2C1_MasterGetRxData
             _I2C1_MasterIsRxBufFull
 ---------------------------------------------------------------------------------
 (8) _I2C1_MasterIsRxBufFull                               0     0      0       0
 ---------------------------------------------------------------------------------
 (8) _I2C1_MasterGetRxData                                 0     0      0       0
 ---------------------------------------------------------------------------------
 (7) _I2C1_DO_BUS_ERROR                                    0     0      0       0
                _I2C1_MasterResetBus
 ---------------------------------------------------------------------------------
 (7) _I2C1_DO_BUS_COLLISION                                2     2      0   44320
                                             12 COMRAM     2     2      0
                                NULL *
           _I2C1_CallbackReturnReset *
            _I2C1_CallbackReturnStop *
                      _I2C1_DO_RESET
          _I2C1_DO_SEND_RESTART_READ
         _I2C1_DO_SEND_RESTART_WRITE
                _I2C1_MasterClearIrq
              _rd1RegCompleteHandler *
              _rd2RegCompleteHandler *
            _rdBlkRegCompleteHandler *
              _wr1RegCompleteHandler *
              _wr2RegCompleteHandler *
 ---------------------------------------------------------------------------------
 (8) _I2C1_DO_SEND_RESTART_WRITE                           0     0      0       0
 ---------------------------------------------------------------------------------
 (8) _I2C1_DO_SEND_RESTART_READ                            0     0      0   22193
              _I2C1_DO_SEND_ADR_READ
              _I2C1_MasterSetCounter
 ---------------------------------------------------------------------------------
 (9) _I2C1_DO_SEND_ADR_READ                                0     0      0   22171
                   _I2C1_DO_RX_EMPTY
              _I2C1_MasterSendTxData
 ---------------------------------------------------------------------------------
 (8) _I2C1_MasterSendTxData                                1     1      0      22
                                              0 COMRAM     1     1      0
 ---------------------------------------------------------------------------------
 (10) _I2C1_DO_RX_EMPTY                                    2     2      0   22149
                                             12 COMRAM     2     2      0
                                NULL *
           _I2C1_CallbackReturnReset *
            _I2C1_CallbackReturnStop *
          _I2C1_MasterDisableRestart
           _I2C1_MasterEnableRestart
              _I2C1_MasterSetCounter
              _rd1RegCompleteHandler *
              _rd2RegCompleteHandler *
            _rdBlkRegCompleteHandler *
              _wr1RegCompleteHandler *
              _wr2RegCompleteHandler *
 ---------------------------------------------------------------------------------
 (8) _I2C1_MasterSetCounter                                1     1      0      22
                                              0 COMRAM     1     1      0
 ---------------------------------------------------------------------------------
 (8) _I2C1_MasterEnableRestart                             0     0      0       0
 ---------------------------------------------------------------------------------
 (8) _I2C1_MasterDisableRestart                            0     0      0       0
 ---------------------------------------------------------------------------------
 (7) _I2C1_DO_RESET                                        0     0      0       0
                _I2C1_MasterResetBus
 ---------------------------------------------------------------------------------
 (8) _I2C1_MasterResetBus                                  0     0      0       0
 ---------------------------------------------------------------------------------
 (7) _I2C1_DO_ADDRESS_NACK                                 2     2      0   22127
                                             12 COMRAM     2     2      0
                                NULL *
           _I2C1_CallbackReturnReset *
            _I2C1_CallbackReturnStop *
               _I2C1_DO_SEND_RESTART
              _rd1RegCompleteHandler *
              _rd2RegCompleteHandler *
            _rdBlkRegCompleteHandler *
              _wr1RegCompleteHandler *
              _wr2RegCompleteHandler *
 ---------------------------------------------------------------------------------
 (8) _wr2RegCompleteHandler                                2     0      2    4368
                                              9 COMRAM     2     0      2
                     _I2C1_SetBuffer
       _I2C1_SetDataCompleteCallback
 ---------------------------------------------------------------------------------
 (8) _wr1RegCompleteHandler                                2     0      2    4368
                                              9 COMRAM     2     0      2
                     _I2C1_SetBuffer
       _I2C1_SetDataCompleteCallback
 ---------------------------------------------------------------------------------
 (8) _rdBlkRegCompleteHandler                              3     1      2    4390
                                              9 COMRAM     3     1      2
                     _I2C1_SetBuffer
       _I2C1_SetDataCompleteCallback
 ---------------------------------------------------------------------------------
 (8) _rd2RegCompleteHandler                                2     0      2    4368
                                              9 COMRAM     2     0      2
                     _I2C1_SetBuffer
       _I2C1_SetDataCompleteCallback
 ---------------------------------------------------------------------------------
 (8) _rd1RegCompleteHandler                                2     0      2    4368
                                              9 COMRAM     2     0      2
                     _I2C1_SetBuffer
       _I2C1_SetDataCompleteCallback
 ---------------------------------------------------------------------------------
 (9) _I2C1_SetDataCompleteCallback                         4     0      4    2478
                                              5 COMRAM     4     0      4
                   _I2C1_SetCallback
 ---------------------------------------------------------------------------------
 (4) _I2C1_SetCallback                                     5     1      4     914
                                              0 COMRAM     5     1      4
 ---------------------------------------------------------------------------------
 (3) _I2C1_SetBuffer                                       4     0      4    1868
                                              0 COMRAM     4     0      4
 ---------------------------------------------------------------------------------
 (7) _I2C1_DO_SEND_RESTART                                 0     0      0       0
 ---------------------------------------------------------------------------------
 (8) _I2C1_CallbackReturnStop                              2     0      2       0
                                              9 COMRAM     2     0      2
 ---------------------------------------------------------------------------------
 (8) _I2C1_CallbackReturnReset                             2     0      2     265
                                              9 COMRAM     2     0      2
 ---------------------------------------------------------------------------------
 (8) NULL(Fake)                                            2     0      2       0
 ---------------------------------------------------------------------------------
 (7) _I2C1_ClearInterruptFlags                             0     0      0       0
          _I2C1_MasterClearCountFlag
           _I2C1_MasterClearNackFlag
           _I2C1_MasterClearStopFlag
          _I2C1_MasterIsCountFlagSet
           _I2C1_MasterIsNackFlagSet
           _I2C1_MasterIsStopFlagSet
 ---------------------------------------------------------------------------------
 (8) _I2C1_MasterIsStopFlagSet                             0     0      0       0
 ---------------------------------------------------------------------------------
 (8) _I2C1_MasterIsNackFlagSet                             0     0      0       0
 ---------------------------------------------------------------------------------
 (8) _I2C1_MasterIsCountFlagSet                            0     0      0       0
 ---------------------------------------------------------------------------------
 (8) _I2C1_MasterClearStopFlag                             0     0      0       0
 ---------------------------------------------------------------------------------
 (8) _I2C1_MasterClearNackFlag                             0     0      0       0
 ---------------------------------------------------------------------------------
 (8) _I2C1_MasterClearCountFlag                            0     0      0       0
 ---------------------------------------------------------------------------------
 (3) _I2C1_Close                                           1     1      0      24
                                              0 COMRAM     1     1      0
                _I2C1_MasterClearIrq
                   _I2C1_MasterClose
              _I2C1_MasterDisableIrq
 ---------------------------------------------------------------------------------
 (4) _I2C1_MasterDisableIrq                                0     0      0       0
 ---------------------------------------------------------------------------------
 (4) _I2C1_MasterClose                                     0     0      0       0
 ---------------------------------------------------------------------------------
 (4) _I2C1_MasterClearIrq                                  0     0      0       0
 ---------------------------------------------------------------------------------
 Estimated maximum stack depth 10
 ---------------------------------------------------------------------------------

 Call Graph Graphs:

 _main (ROOT)
   _EEPROM_ReadByte
     _I2C1_ReadNBytes
       _I2C1_Close
         _I2C1_MasterClearIrq
         _I2C1_MasterClose
         _I2C1_MasterDisableIrq
       _I2C1_MasterRead
         _I2C1_MasterOperation
           _I2C1_DO_SEND_ADR_READ
             _I2C1_DO_RX_EMPTY
               NULL(Fake) *
               _I2C1_CallbackReturnReset *
               _I2C1_CallbackReturnStop *
               _I2C1_MasterDisableRestart *
               _I2C1_MasterEnableRestart *
               _I2C1_MasterSetCounter *
               _rd1RegCompleteHandler *
                 _I2C1_SetBuffer
                 _I2C1_SetDataCompleteCallback
                   _I2C1_SetCallback
               _rd2RegCompleteHandler *
                 _I2C1_SetBuffer
                 _I2C1_SetDataCompleteCallback
               _rdBlkRegCompleteHandler *
                 _I2C1_SetBuffer
                 _I2C1_SetDataCompleteCallback
               _wr1RegCompleteHandler *
                 _I2C1_SetBuffer
                 _I2C1_SetDataCompleteCallback
               _wr2RegCompleteHandler *
                 _I2C1_SetBuffer
                 _I2C1_SetDataCompleteCallback
             _I2C1_MasterSendTxData
           _I2C1_DO_SEND_ADR_WRITE
             _I2C1_MasterSendTxData
           _I2C1_MasterSetCounter
           _I2C1_Poller
             _I2C1_MasterFsm
               _I2C1_ClearInterruptFlags
                 _I2C1_MasterClearCountFlag
                 _I2C1_MasterClearNackFlag
                 _I2C1_MasterClearStopFlag
                 _I2C1_MasterIsCountFlagSet
                 _I2C1_MasterIsNackFlagSet
                 _I2C1_MasterIsStopFlagSet
               _I2C1_DO_ADDRESS_NACK *
                 NULL(Fake) *
                 _I2C1_CallbackReturnReset *
                 _I2C1_CallbackReturnStop *
                 _I2C1_DO_SEND_RESTART *
                 _rd1RegCompleteHandler *
                 _rd2RegCompleteHandler *
                 _rdBlkRegCompleteHandler *
                 _wr1RegCompleteHandler *
                 _wr2RegCompleteHandler *
               _I2C1_DO_BUS_COLLISION *
                 NULL(Fake) *
                 _I2C1_CallbackReturnReset *
                 _I2C1_CallbackReturnStop *
                 _I2C1_DO_RESET *
                   _I2C1_MasterResetBus
                 _I2C1_DO_SEND_RESTART_READ *
                   _I2C1_DO_SEND_ADR_READ
                   _I2C1_MasterSetCounter
                 _I2C1_DO_SEND_RESTART_WRITE *
                 _I2C1_MasterClearIrq *
                 _rd1RegCompleteHandler *
                 _rd2RegCompleteHandler *
                 _rdBlkRegCompleteHandler *
                 _wr1RegCompleteHandler *
                 _wr2RegCompleteHandler *
               _I2C1_DO_BUS_ERROR *
                 _I2C1_MasterResetBus
               _I2C1_DO_IDLE *
               _I2C1_DO_RESET *
               _I2C1_DO_RX *
                 _I2C1_DO_RX_EMPTY
                 _I2C1_MasterGetRxData
                 _I2C1_MasterIsRxBufFull
               _I2C1_DO_RX_ACK *
                 _I2C1_MasterSendAck
               _I2C1_DO_RX_EMPTY *
               _I2C1_DO_RX_NACK_RESTART *
                 _I2C1_MasterSendNack
               _I2C1_DO_RX_NACK_STOP *
                 _I2C1_DO_IDLE
                 _I2C1_MasterSendNack
                 _I2C1_MasterStop
               _I2C1_DO_SEND_ADR_READ *
               _I2C1_DO_SEND_ADR_WRITE *
               _I2C1_DO_SEND_RESTART *
               _I2C1_DO_SEND_RESTART_READ *
               _I2C1_DO_SEND_RESTART_WRITE *
               _I2C1_DO_SEND_STOP *
                 _I2C1_MasterGetCounter
                 _I2C1_MasterSendTxData
                 _I2C1_MasterSetCounter
                 _I2C1_MasterStop
               _I2C1_DO_TX *
                 NULL(Fake) *
                 _I2C1_CallbackReturnReset *
                 _I2C1_CallbackReturnStop *
                 _I2C1_DO_SEND_RESTART_READ *
                 _I2C1_DO_SEND_RESTART_WRITE *
                 _I2C1_DO_TX_EMPTY *
                   NULL(Fake) *
                   _I2C1_CallbackReturnReset *
                   _I2C1_CallbackReturnStop *
                   _I2C1_MasterDisableRestart *
                   _I2C1_MasterEnableRestart *
                   _I2C1_MasterSetCounter *
                   _rd1RegCompleteHandler *
                   _rd2RegCompleteHandler *
                   _rdBlkRegCompleteHandler *
                   _wr1RegCompleteHandler *
                   _wr2RegCompleteHandler *
                 _I2C1_MasterIsNack *
                 _I2C1_MasterIsTxBufEmpty *
                 _I2C1_MasterSendTxData *
                 _rd1RegCompleteHandler *
                 _rd2RegCompleteHandler *
                 _rdBlkRegCompleteHandler *
                 _wr1RegCompleteHandler *
                 _wr2RegCompleteHandler *
               _I2C1_DO_TX_ACK *
                 _I2C1_MasterSendAck
               _I2C1_DO_TX_EMPTY *
               _I2C1_MasterIsNack *
             _I2C1_MasterWaitForEvent
       _I2C1_Open
         _I2C1_MasterClearIrq
         _I2C1_MasterOpen
       _I2C1_SetBuffer
     _I2C1_WriteNBytes
       _I2C1_Close
       _I2C1_MasterWrite
         _I2C1_MasterOperation
       _I2C1_Open
       _I2C1_SetAddressNackCallback
         _I2C1_SetCallback
       _I2C1_SetBuffer
   _EEPROM_WriteByte
     _I2C1_WriteNBytes
   _SYSTEM_Initialize
     _I2C1_Initialize
     _OSCILLATOR_Initialize
     _PIN_MANAGER_Initialize
     _PMD_Initialize
     _UART1_Initialize
       _UART1_SetErrorHandler
       _UART1_SetFramingErrorHandler
       _UART1_SetOverrunErrorHandler
   _UART_SendString
     _UART1_Write
   _sprintf
     _vfprintf
       _vfpfcnvrt
         _fputc
           _putch
             _UART1_Write

 Address spaces:
Name               Size   Autos  Total    Cost      Usage
BIGRAM             FFF      0       0      64        0.0%
EEDATA             400      0       0       0        0.0%
BITBIGSFRlhlllh    284      0       0      44        0.0%
BITBIGSFRhll       1BF      0       0      38        0.0%
BITBIGSFRlll       192      0       0      62        0.0%
BITBANK15          100      0       0      34        0.0%
BANK15             100      0       0      35        0.0%
BITBANK14          100      0       0      32        0.0%
BANK14             100      0       0      33        0.0%
BITBANK13          100      0       0      30        0.0%
BANK13             100      0       0      31        0.0%
BITBANK12          100      0       0      28        0.0%
BANK12             100      0       0      29        0.0%
BITBANK11          100      0       0      26        0.0%
BANK11             100      0       0      27        0.0%
BITBANK10          100      0       0      24        0.0%
BANK10             100      0       0      25        0.0%
BITBANK9           100      0       0      22        0.0%
BANK9              100      0       0      23        0.0%
BITBANK8           100      0       0      20        0.0%
BANK8              100      0       0      21        0.0%
BITBANK7           100      0       0      18        0.0%
BANK7              100      0       0      19        0.0%
BITBANK6           100      0       0      16        0.0%
BANK6              100      0       0      17        0.0%
BITBANK5           100      0       0      14        0.0%
BANK5              100      0       0      15        0.0%
BITBANK4           100      0       0      12        0.0%
BANK4              100      0       0      13        0.0%
BITBANK3           100      0       0      10        0.0%
BANK3              100      0       0      11        0.0%
BITBANK2           100      0       0       8        0.0%
BANK2              100      0       0       9        0.0%
BITBANK1           100      0       0       6        0.0%
BANK1              100      0       0       7        0.0%
BITBANK0            A0      0       0       4        0.0%
BANK0               A0     34      54       5       52.5%
BITBIGSFRlhlhh      6C      0       0      41        0.0%
BITCOMRAM           5F      0       0       0        0.0%
COMRAM              5F     2D      5D       1       97.9%
BITBIGSFRlhlllh     5C      0       0      46        0.0%
BITBIGSFRhhh        39      0       0      36        0.0%
BITBIGSFRlhllll     29      0       0      54        0.0%
BITBIGSFRlhllll     29      0       0      56        0.0%
BITBIGSFRlhllll     1C      0       0      60        0.0%
BITBIGSFRlhllll     11      0       0      59        0.0%
BITBIGSFRllh         E      0       0      61        0.0%
BITBIGSFRlhllll      B      0       0      55        0.0%
BITBIGSFRlhllll      B      0       0      53        0.0%
BITBIGSFRlhllh       6      0       0      43        0.0%
BITBIGSFRlhllll      5      0       0      52        0.0%
BITBIGSFRlhlllh      5      0       0      50        0.0%
BITBIGSFRlhlllh      5      0       0      48        0.0%
BITBIGSFRlhlllh      4      0       0      47        0.0%
BITBIGSFRlhlllh      4      0       0      49        0.0%
BITBIGSFRlhlllh      4      0       0      51        0.0%
BITBIGSFRhhll        3      0       0      37        0.0%
BITBIGSFRlhlllh      2      0       0      45        0.0%
BITBIGSFRlhllll      1      0       0      57        0.0%
BITBIGSFRlhllll      1      0       0      58        0.0%
BITBIGSFRlhlhll      1      0       0      42        0.0%
BITBIGSFRlhhh        1      0       0      39        0.0%
BITBIGSFRlhhl        1      0       0      40        0.0%
BIGSFR               0      0       0     200        0.0%
BITSFR_8             0      0       0     200        0.0%
SFR_8                0      0       0     200        0.0%
BITSFR_7             0      0       0     200        0.0%
SFR_7                0      0       0     200        0.0%
BITSFR_6             0      0       0     200        0.0%
SFR_6                0      0       0     200        0.0%
BITSFR_5             0      0       0     200        0.0%
SFR_5                0      0       0     200        0.0%
BITSFR_4             0      0       0     200        0.0%
SFR_4                0      0       0     200        0.0%
BITSFR_3             0      0       0     200        0.0%
SFR_3                0      0       0     200        0.0%
BITSFR_2             0      0       0     200        0.0%
SFR_2                0      0       0     200        0.0%
BITSFR_1             0      0       0     200        0.0%
SFR_1                0      0       0     200        0.0%
BITSFR               0      0       0     200        0.0%
SFR                  0      0       0     200        0.0%
STACK                0      0       0       2        0.0%
NULL                 0      0       0       0        0.0%
ABS                  0      0      B1      63        0.0%
DATA                 0      0      B1       3        0.0%
CODE                 0      0       0       0        0.0%


Microchip Technology PIC18 Macro Assembler V2.45 build 20230818022343 
Symbol Table                                                                                   Wed Oct 18 15:29:16 2023

                                          l90 1DA6                                            l93 1D7A  
                                          l69 1AEC                                            l78 1C18  
                                          l96 1D4E                                            l99 1DD2  
                                         l102 1BD4                                           l200 206A  
                                         l212 207E                                           l215 2074  
                                         l401 1F70                                           l218 2088  
                                         l501 2120                                           l165 19D2  
                                         l511 20D8                                           l407 1F58  
                                         l191 1F12                                           l600 1FC8  
                                         l520 203A                                           l424 1F0E  
                                         l505 1E4E                                           l418 196A  
                                         l514 2048                                           l194 1F28  
                                         l603 1F9C                                           l443 1DFC  
                                         l371 1E94                                           l612 1FF4  
                                         l436 1B3E                                           l452 1350  
                                         l508 20D0                                           l428 188E  
                                         l621 2116                                           l517 20C8  
                                         l533 18FC                                           l606 1FDE  
                                         l446 201E                                           l470 1654  
                                         l526 1A38                                           l615 2110  
                                         l439 2092                                           l375 1732  
                                         l391 20B8                                           l632 1EF2  
                                         l561 2060                                           l609 200A  
                                         l545 212C                                           l641 1A60  
                                         l385 1B8A                                           l618 211C  
                                         l570 20E6                                           l642 1A74  
                                         l635 20E0                                           l379 1E26  
                                         l539 202C                                           l643 1A86  
                                         l548 2128                                           l564 20FE  
                                         l388 20C0                                           l573 20A6  
                                         l469 16A4                                           l477 17AA  
                                         l813 181C                                           l398 1EB6  
                                         l582 210A                                           l486 160C  
                                         l646 1A94                                           l638 1A3A  
                                         l558 1D22                                           l822 1CF4  
                                         l567 209C                                           l591 20F8  
                                         l495 2054                                           l639 1A4E  
                                         l576 20B0                                           l585 20EC  
                                         l825 1C90                                           l594 20F2  
                                         l498 2124                                           l579 2104  
                                         l691 1E72                                           l588 1FB2  
                                         l685 1F86                                           l688 1F40  
                                         l788 1570                                           u900 1FDC  
                                         u901 1FD6                                           u910 1FF2  
                                         u830 1912                                           u911 1FEC  
                                         u831 190E                                           u840 1EA4  
                                         u920 1F9A                                           u841 1EA0  
                                         u921 1F94                                           u906 1FDE  
                                         u850 15AA                                           u851 15A6  
                                         u916 1FF4                                           u940 1FC6  
                                         u941 1FC0                                           u950 1B02  
                                         u926 1F9C                                           u870 1DEE  
                                         u951 1AFE                                           u871 1DEA  
                                         u960 1B1E                                           u880 1FB0  
                                         u961 1B1A                                           u881 1FAA  
                                         u890 2008                                           u970 1B3A  
                                         u946 1FC8                                           u938 1768  
                                         u891 2002                                           u971 1B36  
                                         u939 177A                                           u980 1248  
                                         u868 15C2                                           u981 1244  
                                         u869 15D4                                           u886 1FB2  
                                         u896 200A                                           u998 1270  
                                         u999 1282                   ??_I2C1_MasterClearCountFlag 0001  
                       ?_I2C1_MasterOperation 0001                        ?_I2C1_MasterSetCounter 0001  
                                         tosl 3FFD                                           wreg 3FE8  
                      ?_I2C1_MasterSendTxData 0001                          _I2C1_DO_RX_NACK_STOP 203C  
                   ?_I2C1_MasterEnableRestart 0001                      fp__I2C1_DO_SEND_ADR_READ 0000  
                     fp__I2C1_DO_SEND_RESTART 0000                          I2C1_SetBuffer@buffer 0001  
                  ??_I2C1_MasterIsStopFlagSet 0001                       ??_rd2RegCompleteHandler 000C  
                                        l3002 1686                                          l3004 168C  
                                        l3012 1E28                                          l3100 1F12  
                                        l3030 20D6                                          l3006 169E  
                                        l3014 1E2C                                          l3022 20CA  
                                        l3102 1F22                                          l3008 16A2  
                                        l3016 1E40                                          l3024 20CE  
                                        l3040 20C2                                          l3120 184A  
                                        l3200 16C0                                          l3018 1E4C  
                                        l3034 203C                                          l3042 20C6  
                                        l3050 19E2                                          l3122 184E  
                                        l3114 181E                                          l3130 1EFC  
                                        l3210 16D4                                          l3202 16C2  
                                        l3028 20D2                                          l3036 2044  
                                        l3060 19F0                                          l3116 1822  
                                        l3132 1F00                                          l3140 1D1E  
                                        l3220 16FC                                          l3212 16DC  
                                        l3204 16C6                                          l3124 2064  
                                        l3300 1156                                          l1516 1CC4  
                                        l3150 205E                                          l3054 19EA  
                                        l3046 19D4                                          l3070 189C  
                                        l3118 1836                                          l3126 1EF4  
                                        l3134 1CF6                                          l3230 1724  
                                        l3222 1704                                          l3214 16E4  
                                        l3206 16CA                                          l3310 11B8  
                                        l3302 1166                                          l3144 1ED6  
                                        l3048 19DC                                          l3128 1EF8  
                                        l3160 1B5A                                          l3152 1B42  
                                        l3136 1D06                                          l3232 1728  
                                        l3224 170C                                          l3216 16EC  
                                        l3208 16D2                                          l3240 1F42  
                                        l3312 11BA                                          l3304 1178  
                                        l3400 1C22                                          l3146 2056  
                                        l3250 1E10                                          l3074 18A4  
                                        l3066 1890                                          l3090 2020  
                                        l3170 1B80                                          l3162 1B60  
                                        l3154 1B46                                          l3138 1D12  
                                        l3234 172C                                          l3226 1714  
                                        l3218 16F4                                          l3242 20B2  
                                        l3306 118A                                          l3322 120C  
                                        l1562 1C5A                                          l3402 1C32  
                                        l1555 1232                                          l3148 205A  
                                        l3252 1E14                                          l3260 1E24  
                                        l2700 1DA4                                          l3084 18B4  
                                        l3068 1894                                          l3092 2024  
                                        l3172 1B84                                          l3164 1B70  
                                        l3156 1B54                                          l3228 171C  
                                        l3236 1730                                          l3340 1AD4  
                                        l3332 1A98                                          l3180 142C  
                                        l3308 119E                                          l3316 11D0  
                                        l3404 1C52                                          l3254 1E18  
                                        l3246 1DFE                                          l3078 18AC  
                                        l3094 2026                                          l3166 1B74  
                                        l3158 1B56                                          l3174 1B88  
                                        l3350 1C00                                          l3342 1AD8  
                                        l3334 1A98                                          l3270 206C  
                                        l1574 14C6                                          l3182 143C  
                                        l3318 1200                                          l3256 1E1C  
                                        l3248 1E02                                          l2720 1DA8  
                                        l2704 1D50                                          l2712 1D24  
                                        l2800 20A8                                          l3096 202A  
                                        l3168 1B7C                                          l3264 20BA  
                                        l3192 16A8                                          l3352 1C04  
                                        l3344 1BD8                                          l3336 1AAE  
                                        l3272 2080                                          l3360 19C2  
                                        l3440 17AC                                          l3184 1446  
                                        l3280 10D8                                          l2802 20DA  
                                        l3258 1E20                                          l2722 1DBC  
                                        l2706 1D64                                          l2714 1D38  
                                        l2730 1BBE                                          l3194 16AC  
                                        l3346 1BD8                                          l3338 1AC0  
                                        l3450 1CCC                                          l3370 1E50  
                                        l3362 19CE                                          l3354 196C  
                                        l3442 17B0                                          l3186 1462  
                                        l3178 141C                                          l3290 1130  
                                        l3282 10DC                                          l3274 109E  
                                        l2812 2118                                          l2820 1FE0  
                                        l2724 1DD0                                          l2708 1D78  
                                        l2716 1D4C                                          l2732 1BD2  
                                        l2740 2106                                          l2804 1F9E  
                                        l2900 2032                                          l3196 16BA  
                                        l3348 1BEE                                          l3460 1C62  
                                        l3452 1CD0                                          l3364 1E74  
                                        l3380 1540                                          l3372 14C8  
                                        l3268 2076                                          l3356 19AA  
                                        l3436 1F72                                          l3444 17DE  
                                        l3188 1494                                          l3292 1134  
                                        l3284 10E6                                          l3276 10C4  
                                        l2814 1FCA                                          l2742 212A  
                                        l2830 2090                                          l2910 2014  
                                        l2750 1572                                          l2902 2034  
                                        l3198 16BE                                          l3462 1C66  
                                        l3454 1CD4                                          l3366 1E92  
                                        l3390 154E                                          l3382 1542  
                                        l3374 14E0                                          l3358 19B6  
                                        l3438 1F82                                          l3446 17E2  
                                        l3294 113A                                          l3286 1106  
                                        l3278 10CC                                          l2824 2112  
                                        l2808 1FF6                                          l2920 1B0A  
                                        l2680 1900                                          l2728 1B8C  
                                        l2736 20A0                                          l2912 201C  
                                        l3720 178C                                          l2760 1586  
                                        l2752 1578                                          l2840 2122  
                                        l2904 2038                                          l3464 1C78  
                                        l3456 1CE6                                          l3448 1CC8  
                                        l3392 1550                                          l3384 1544  
                                        l3376 14EE                                          l3712 11F2  
                                        l3296 114A                                          l3288 1122  
                                        l3480 1CBA                                          l3472 1C92  
                                        l2818 210C                                          l2922 1B1E  
                                        l2690 1EA4                                          l2682 1912  
                                        l2746 2126                                          l2738 2100  
                                        l2826 208A                                          l3722 1294  
                                        l2850 173A                                          l2770 1598  
                                        l2754 157C                                          l2834 204A  
                                        l3714 18E6                                          l3466 1C7C  
                                        l3458 1C5E                                          l3394 1552  
                                        l3386 1546                                          l3378 14FE  
                                        l3298 1152                                          l3474 1C9A  
                                        l3570 1356                                          l2924 1B26  
                                        l2916 1AEE                                          l2692 1EAC  
                                        l2684 1946                                          l2844 1F88  
                                        l2828 208C                                          l2908 200C  
                                        l2940 125C                                          l2932 124C  
                                        l2852 173E                                          l2772 15AA  
                                        l2764 158C                                          l2780 15B4  
                                        l2836 2050                                          l3716 1A22  
                                        l3468 1C8E                                          l3396 1F2A  
                                        l3388 154C                                          l3476 1CA2  
                                        l3580 13B0                                          l3572 1368  
                                        l2926 1B3A                                          l2918 1B02  
                                        l2694 1EB4                                          l2686 1F5A  
                                        l2790 1DDC                                          l2950 12CE  
                                        l2862 1750                                          l2870 175A  
                                        l3718 15E6                                          l2774 15AE  
                                        l2766 1592                                          l2758 1582  
                                        l3398 1C1A                                          l3478 1CAA  
                                        l3590 13FE                                          l3582 13C0  
                                        l3574 1378                                          l2688 1E96  
                                        l2696 1D7C                                          l2880 20FA  
                                        l2792 1DEE                                          l2960 1326  
                                        l2952 12E2                                          l2936 1254  
                                        l2928 1234                                          l2864 1754  
                                        l2856 1744                                          l2848 1734  
                                        l3584 13D2                                          l3576 138A  
                                        l3568 1352                                          l2698 1D90  
                                        l2786 2096                                          l2890 20E2  
                                        l2794 1DF2                                          l2962 1336  
                                        l2954 12FA                                          l2946 1262  
                                        l2858 174A                                          l3586 13E4  
                                        l3578 139C                                          l2876 1FB4  
                                        l2796 1DFA                                          l2788 1DD4  
                                        l2964 133E                                          l2956 130A  
                                        l2948 12BA                                          l2884 211E  
                                        l3588 13EE                                          l2894 20F4  
                                        l2966 1342                                          l2958 130E  
                                        l2974 134E                                          l2990 163C  
                                        l2982 160E                                          l2896 20EE  
                                        l2888 20E8                                          l2968 1348  
                                        l2992 166C                                          l2984 1622  
                                        l2994 167E                                          l2898 202E  
                                        l2988 1628                                          STR_1 1044  
                                        STR_2 1027                                          STR_3 105D  
                                        STR_4 108D                                          STR_5 1076  
                                        u1000 12CE                                          u1001 12CA  
                                        u1010 12E2                                          u1011 12DE  
                                        u1020 1326                                          u1100 1A4A  
                                        u1021 1322                                          u1101 1A46  
                                        u1030 1622                                          u1110 1A5C  
                                        u1031 161E                                          u1111 1A58  
                                        u1040 163C                                          u1120 1A70  
                                        u1200 1B54                                          u1041 1638  
                                        u1121 1A6C                                          u1201 1B50  
                                        u1050 166C                                          u1130 1A82  
                                        u1210 1B70                                          u1051 1668  
                                        u1131 1A7E                                          u1211 1B6C  
                                        u1060 1E40                                          u1140 1A94  
                                        u1220 142C                                          u1300 114A  
                                        u1061 1E3C                                          u1141 1A90  
                                        u1221 1428                                          u1301 1146  
                                        u1150 1836                                          u1230 143C  
                                        u1310 118A                                          u1151 1832  
                                        u1231 1438                                          u1311 1186  
                                        u1160 184A                                          u1240 1462  
                                        u1320 119A                                          u1161 1846  
                                        u1241 145E                                          u1321 1196  
                                        u1090 1F22                                          u1250 1494  
                                        u1330 11CC                                          u1091 1F1E  
                                        u1251 1490                                          u1331 11C8  
                                        u1180 1F0E                                          u1260 16BA  
                                        u1340 1AAE                                          u1181 1F0A  
                                        u1261 16B6                                          u1341 1AAA  
                                        _LATA 3FBA                                          u1270 1E10  
                                        u1078 19FE                                          u1190 1D06  
                                        u1350 1AEC                                          u1430 17DA  
                                        _LATB 3FBB                                          u1271 1E0C  
                                        u1079 1A10                                          u1191 1D02  
                                        u1351 1AE8                                          _LATC 3FBC  
                                        u1088 18C2                                          u1360 1BEE  
                                        u1440 180C                                          u1280 10C4  
                                        u1520 139C                                          _LATD 3FBD  
                                        u1089 18D4                                          u1361 1BEA  
                                        u1281 10C0                                          u1521 1398  
                                        _LATE 3FBE                                          u1178 187A  
                                        u1370 1C18                                          u1450 181C  
                                        u1290 1106                                          u1179 188C  
                                        u1371 1C14                                          u1451 1818  
                                        u1291 1102                                          u1380 1C52  
                                        u1437 17CC                                          u1381 1C4E  
                                        u1447 17FE                                          u1537 1408  
                                        u1547 1CEC                                          _PMD0 39C0  
                                        _PMD1 39C1                                          _PMD2 39C2  
                                        _PMD3 39C3                                          _PMD4 39C4  
                                        _PMD5 39C5                                          _PMD6 39C6  
                                        _PMD7 39C7                                          _WPUA 3A41  
                                        _WPUB 3A51                                          _WPUC 3A61  
                                        _WPUD 3A71                                          _WPUE 3A81  
                     ??_wr2RegCompleteHandler 000C                              ??_I2C1_MasterFsm 0013  
                   ??_I2C1_CallbackReturnStop 000C                                          _dbuf 0094  
                                        _main 1352                                          _prec 0054  
                                        fsr0h 3FEA                                          fsr1h 3FE2  
                                        indf0 3FEF                                          fsr2h 3FDA  
                                        fsr0l 3FE9                                          indf2 3FDF  
                                        fsr1l 3FE1                                          fsr2l 3FD9  
                        EEPROM_WriteByte@data 001E                                          prodl 3FF3  
                                        start FFFC                              ??_I2C1_SetBuffer 0005  
                                ___param_bank 0000                 I2C1_CallbackReturnStop@funPtr 000A  
                             _I2C1_DO_TX$1073 000F                 __end_of_OSCILLATOR_Initialize 1F42  
                           ??_I2C1_ReadNBytes 001B                             __end_of_I2C1_Open 1734  
                                       ?_main 0001                                         _U1P1H 3DED  
                                       _U1P2H 3DEF                                         _U1P3H 3DF1  
                                       _U1P1L 3DEC                                         _U1P2L 3DEE  
                                       _U1P3L 3DF0                        I2C1_ReadNBytes@address 001B  
                                       _U1UIR 3DF8                                         _U1RXB 3DE8  
                                       _U1TXB 3DEA                    __end_of_i2c1_fsmStateTable 1027  
                                       _OSCEN 39DD                                  main@readData 0093  
                                vfpfcnvrt@fmt 000C                                         _TRISA 3FC2  
                                       _TRISB 3FC3                                         _TRISC 3FC4  
                                       _TRISD 3FC5                                         _TRISE 3FC6  
                      ??_I2C1_MasterGetRxData 0001                         ?_I2C1_DO_RX_NACK_STOP 0001  
                           ??_I2C1_MasterRead 0018                    ??_I2C1_CallbackReturnReset 000C  
                           ??_I2C1_MasterOpen 0001                             ??_I2C1_MasterStop 0001  
                           ??_I2C1_Initialize 0001                     ?_I2C1_MasterIsNackFlagSet 0001  
                                       _flags 0056                                         _fputc 141C  
                                       _width 0052                                         _putch 2062  
                            ?_UART_SendString 0002              __end_of_I2C1_MasterClearNackFlag 2118  
                                       pclath 3FFA                                         tablat 3FF5  
                                       status 3FD8                               __end_of_sprintf 1CC6  
                                ??_I2C1_DO_RX 000F                                  ??_I2C1_DO_TX 000D  
                   _I2C1_MasterClearCountFlag 2118              _UART1_DefaultFramingErrorHandler 0000  
                      ??_I2C1_DO_ADDRESS_NACK 000D                                  ??_I2C1_Close 0001  
                    fp__rd1RegCompleteHandler 0000                               __initialization 1EB8  
                               main@checkData 0092                                  __end_of_main 141C  
                    fp__wr1RegCompleteHandler 0000                    ?_I2C1_MasterDisableRestart 0001  
                I2C1_MasterSetCounter@counter 0001                                  ?_UART1_Write 0001  
            __end_of_I2C1_MasterClearStopFlag 2112                  fp__I2C1_DO_SEND_RESTART_READ 0000  
                      ??_I2C1_MasterOperation 0016                                        ??_main 002C  
                               __activetblptr 0003                            __end_of_I2C1_DO_RX 16A6  
                          __end_of_I2C1_DO_TX 1352                              _UART1_Initialize 196C  
                          __end_of_I2C1_Close 1E28                      __end_of_I2C1_WriteNBytes 1AEE  
                                      ?_fputc 0003                                        _ANSELA 3A40  
                                      ?_putch 0001                                        _ANSELB 3A50  
                                      _ANSELC 3A60                                        _ANSELD 3A70  
                                      _ANSELE 3A80                                        _RB1I2C 3A5A  
                                      _RB2I2C 3A5B                                        _RD0I2C 3A7A  
                                      _U1CON0 3DF2                                        _U1CON1 3DF3  
                                      _U1CON2 3DF4                                        _RD1I2C 3A7B  
                                      _RC3I2C 3A6A                                        _RC4I2C 3A6B  
                                      _U1BRGH 3DF6                                        _U1FIFO 3DF7  
                                      _U1BRGL 3DF5                                        _RB1PPS 3A09  
                                      _RB2PPS 3A0A                                        _ODCONA 3A42  
                                      _ODCONB 3A52                                        _RC6PPS 3A16  
                                      _ODCONC 3A62                                        _ODCOND 3A72  
                                      _ODCONE 3A82                                        _INLVLA 3A44  
                                      _INLVLB 3A54                                        _INLVLC 3A64  
                                      _INLVLD 3A74                                        _INLVLE 3A84  
                     ??_I2C1_MasterGetCounter 0001                                        _OSCFRQ 39DF  
                           ?_I2C1_MasterClose 0001                 EEPROM_WriteByte@deviceAddress 0020  
                       _UART1_SetErrorHandler 2080                              _I2C1_DO_RX_EMPTY 1572  
                     ??_I2C1_MasterDisableIrq 0001                             ?_I2C1_MasterWrite 0001  
                    ?_I2C1_MasterWaitForEvent 0001                            ??_I2C1_MasterClose 0001  
                            _I2C1_DO_TX_EMPTY 1734                            ??_I2C1_MasterWrite 0018  
                                vfprintf@cfmt 001A             __end_of_I2C1_MasterDisableRestart 210C  
                           ??_EEPROM_ReadByte 001E                                        clear_0 1EBE  
                                      clear_1 1ECA                                        isa$std 0001  
                    __end_of_EEPROM_WriteByte 1CF6                      ??_I2C1_DO_SEND_ADR_WRITE 0001  
                           ?_I2C1_SetCallback 0001                        ??_I2C1_DO_RX_NACK_STOP 0001  
                     ??_I2C1_DO_BUS_COLLISION 000D                        EEPROM_WriteByte@buffer 0021  
                       _I2C1_DO_SEND_ADR_READ 1DD4                                        fputc@c 0003  
                              _PMD_Initialize 1E50                 ?_I2C1_SetDataCompleteCallback 0006  
                          ??_I2C1_SetCallback 0005                                  __mediumconst 0000  
                EEPROM_ReadByte@deviceAddress 0020                                        tblptrh 3FF7  
                                      tblptrl 3FF6                                        tblptru 3FF8  
                            __end_of_vfprintf 1C5C          __end_of_UART1_SetOverrunErrorHandler 2076  
                _UART1_SetOverrunErrorHandler 206C                     _UART1_DefaultErrorHandler 0000  
                                   ??_sprintf 001F                       _I2C1_DO_RX_NACK_RESTART 20C2  
                  fp__I2C1_DO_RX_NACK_RESTART 0000                           I2C1_WriteNBytes@len 0019  
                           _SYSTEM_Initialize 1F72                I2C1_SetDataCompleteCallback@cb 0006  
                                  __accesstop 0060                       __end_of__initialization 1ED0  
             I2C1_MasterOperation@returnValue 0017                            ?_SYSTEM_Initialize 0001  
                               ___rparam_used 0001                      _I2C1_MasterClearNackFlag 2112  
                               ??_I2C1_Poller 0016                       _rdBlkRegCompleteHandler 1B8C  
                  fp__rdBlkRegCompleteHandler 0000                                __pcstackCOMRAM 0001  
                         ??_SYSTEM_Initialize 0003              __end_of_I2C1_MasterEnableRestart 2106  
                               __end_of_fputc 14C8                                 __end_of_putch 206C  
                     ??_I2C1_MasterSetCounter 0001                        __end_of_PMD_Initialize 1E74  
                ??_I2C1_DO_SEND_RESTART_WRITE 0001                       ??_I2C1_MasterSendTxData 0001  
                  ?_I2C1_MasterIsCountFlagSet 0001                     _UART1_FramingErrorHandler 005C  
                    _I2C1_MasterClearStopFlag 210C                         __end_of_I2C1_DO_RESET 203C  
                           _I2C1_DO_BUS_ERROR 2020                                       ??_fputc 0006  
                   __end_of_SYSTEM_Initialize 1F88                                       ??_putch 0002  
                   ?_I2C1_ClearInterruptFlags 0001                                    __pbssBANK0 0094  
                          ?_I2C1_DO_BUS_ERROR 0001               __end_of_I2C1_MasterWaitForEvent 1A96  
               ?_UART1_SetOverrunErrorHandler 0001                        ?_UART1_SetErrorHandler 0001  
               __end_of_rd2RegCompleteHandler 1D7C                          I2C1_Open@returnValue 0002  
                                  __pnvCOMRAM 0058                 __end_of_wr2RegCompleteHandler 1DD4  
                       _rd1RegCompleteHandler 1D7C                               _I2C1_ReadNBytes 1BD6  
                         ??_I2C1_DO_BUS_ERROR 0001                             _I2C1_DO_SEND_STOP 1E28  
                       _wr1RegCompleteHandler 1D24                      rd1RegCompleteHandler@ptr 000A  
                               fp__I2C1_DO_RX 0000                                 fp__I2C1_DO_TX 0000  
                             fp__I2C1_DO_IDLE 0000                       fp__I2C1_DO_ADDRESS_NACK 0000  
                          ?_I2C1_DO_SEND_STOP 0001                                       _I2C1CLK 3D7B  
                                     _I2C1CNT 3D6C                                       _I2C1ERR 3D76  
                                     _I2C1PIE 3D7A                                       _I2C1PIR 3D79  
                                     _I2C1RXB 3D6A                                       _I2C1TXB 3D6B  
            __end_of_I2C1_MasterIsNackFlagSet 1FF6                               _I2C1_MasterRead 20BA  
                             _I2C1_MasterOpen 1CF6                       _I2C1_MasterIsTxBufEmpty 1F88  
                             _I2C1_MasterStop 20E8                               _I2C1_Initialize 1E74  
                         __end_of_I2C1_Poller 1F10                             fp__I2C1_DO_RX_ACK 0000  
                           fp__I2C1_DO_TX_ACK 0000                               ?_PMD_Initialize 0001  
                      ?_I2C1_DO_SEND_ADR_READ 0001                           ??_I2C1_DO_SEND_STOP 0002  
                                     _U1ERRIE 3DFA                                       _U1ERRIR 3DF9  
                                     _U1RXPPS 3AE5                     __end_of_I2C1_DO_BUS_ERROR 202E  
                           _I2C1_MasterIsNack 1F9E             __end_of_I2C1_MasterIsCountFlagSet 200C  
                                     _OSCCON1 39D9                                       _OSCCON3 39DB  
                                   _I2C1_Open 16A6                     ??_I2C1_DO_RX_NACK_RESTART 0001  
                                     _OSCTUNE 39DE                                       _SLRCONA 3A43  
                                     _SLRCONB 3A53                                       _SLRCONC 3A63  
                                     _SLRCOND 3A73                                       _SLRCONE 3A83  
                       I2C1_DO_RX@retFsmState 0011                            ?_I2C1_MasterIsNack 0001  
                  ?_I2C1_DO_SEND_RESTART_READ 0001                ??_I2C1_SetDataCompleteCallback 000A  
                          _i2c1_fsmStateTable 1001                           ??_I2C1_MasterIsNack 0001  
                   __end_of_I2C1_DO_SEND_STOP 1E50                     ??_rdBlkRegCompleteHandler 000C  
                          I2C1_SetCallback@cb 0001                                       __Hparam 0000  
                                     __Lparam 0000                      __end_of_UART1_Initialize 19D4  
                          UART_SendString@str 0002                           fp__I2C1_DO_RX_EMPTY 0000  
                         fp__I2C1_DO_TX_EMPTY 0000                     ?_I2C1_MasterIsStopFlagSet 0001  
                                   ?_vfprintf 0017                   ??_I2C1_MasterDisableRestart 0001  
                                __psmallconst 1000                                       __pcinit 1EB8  
                               ?_I2C1_DO_IDLE 0001                                       __ramtop 1000  
                                     __ptext0 1352                                       __ptext1 1C92  
                                     __ptext2 1C1A                                       __ptext3 109E  
                                     __ptext4 141C                                       __ptext5 2062  
                                     __ptext6 17AC                                       __ptext7 1F10  
                                     __ptext8 1F72                                       __ptext9 196C  
                    _I2C1_MasterEnableRestart 2100                     __end_of_I2C1_MasterIsNack 1FB4  
                ?_I2C1_SetAddressNackCallback 0006                      __end_of_I2C1_DO_RX_EMPTY 160E  
                       _OSCILLATOR_Initialize 1F2A                                   _I2C1ERRbits 3D76  
                    __end_of_I2C1_DO_TX_EMPTY 17AC                      ??_I2C1_MasterIsRxBufFull 0001  
                    ??_PIN_MANAGER_Initialize 0001                                   _I2C1PIEbits 3D7A  
                    wr1RegCompleteHandler@ptr 000A                                    ?_I2C1_Open 0001  
                                 _I2C1PIRbits 3D79                       fp__I2C1_DO_RX_NACK_STOP 0000  
                    ?_I2C1_CallbackReturnStop 000A                             ?_I2C1_WriteNBytes 0018  
                                     _sprintf 1C92             __end_of_I2C1_DO_SEND_RESTART_READ 2056  
                        end_of_initialization 1ED0                    __end_of_I2C1_MasterSendAck 20FA  
                     __end_of_I2C1_ReadNBytes 1C1A                           _I2C1_MasterClearIrq 20DA  
                          ??_I2C1_WriteNBytes 001B                                       fputc@fp 0005  
                      ?_rd1RegCompleteHandler 000A                        _I2C1_DO_SEND_ADR_WRITE 200C  
               __end_of_I2C1_MasterGetCounter 20E8                               _EEPROM_ReadByte 1C5C  
                __end_of_I2C1_DO_SEND_RESTART 2122                       __end_of_I2C1_MasterRead 20C2  
                     __end_of_I2C1_MasterOpen 1D24                        ?_wr1RegCompleteHandler 000A  
                     __end_of_I2C1_MasterStop 20EE                ??_UART1_SetOverrunErrorHandler 0003  
                     __end_of_I2C1_Initialize 1E96                                   _I2C1_Poller 1EF4  
                   ?_I2C1_CallbackReturnReset 000A                 __end_of_I2C1_MasterDisableIrq 1EF4  
                                 _I2C1_Status 002E                     ??_I2C1_MasterIsTxBufEmpty 0001  
                    fp__rd2RegCompleteHandler 0000                             __end_of_vfpfcnvrt 1234  
                                     postdec2 3FDD                      fp__wr2RegCompleteHandler 0000  
                                     postinc0 3FEE                                       postinc1 3FE6  
                                     postinc2 3FDE                              vfpfcnvrt@convarg 0010  
                         _I2C1_MasterSendNack 20EE           __end_of_I2C1_SetAddressNackCallback 1F5A  
                 _I2C1_SetAddressNackCallback 1F42                                    ??_vfprintf 001A  
                        ?_I2C1_MasterClearIrq 0001                                ??_I2C1_DO_IDLE 0001  
                         _I2C1_MasterResetBus 20A8                             UART1_Write@txData 0001  
          __end_of_I2C1_DO_SEND_RESTART_WRITE 2126                    _I2C1_DO_SEND_RESTART_WRITE 2122  
             __end_of_rdBlkRegCompleteHandler 1BD6                             ?_EEPROM_WriteByte 001C  
                    _I2C1_MasterIsNackFlagSet 1FE0                          I2C1_WriteNBytes@data 0018  
               ??_I2C1_SetAddressNackCallback 000A                            ??_EEPROM_WriteByte 001F  
               __end_of_I2C1_DO_BUS_COLLISION 18FE               I2C1_SetDataCompleteCallback@ptr 0008  
              I2C1_CallbackReturnReset@funPtr 000A                    ??_I2C1_MasterClearNackFlag 0001  
                        ?_I2C1_MasterSendNack 0001                     _I2C1_MasterDisableRestart 2106  
                        ?_I2C1_MasterResetBus 0001                    rdBlkRegCompleteHandler@ptr 000A  
                                  main@buffer 0060                         ??_I2C1_MasterClearIrq 0001  
                            I2C1_DO_TX@dataTx 0011                    ??_I2C1_MasterClearStopFlag 0001  
                                 vfpfcnvrt@ap 000D                                   vfpfcnvrt@cp 0015  
                                 vfpfcnvrt@fp 000B                                _I2C1_DO_RX_ACK 20CA  
                              _I2C1_DO_TX_ACK 20D2              __end_of_I2C1_ClearInterruptFlags 1B40  
                      ?_OSCILLATOR_Initialize 0001               __end_of_I2C1_CallbackReturnStop 212E  
               __end_of_I2C1_MasterSetCounter 20A8                 __end_of_I2C1_MasterSendTxData 209E  
                 ??_I2C1_MasterIsCountFlagSet 0001                           start_initialization 1EB8  
                                 ??_I2C1_Open 0001                       ??_UART1_SetErrorHandler 0003  
                       ??_I2C1_MasterSendNack 0001                         ??_I2C1_MasterResetBus 0001  
                     __end_of_EEPROM_ReadByte 1C92                                   putch@txData 0002  
                            ?_I2C1_ReadNBytes 0018                      I2C1_SetBuffer@bufferSize 0003  
                            ?_I2C1_MasterRead 0001                              ?_I2C1_MasterOpen 0001  
                            ?_I2C1_MasterStop 0001                              ?_I2C1_Initialize 0001  
                                 vfprintf@fmt 0018                              ??_PMD_Initialize 0001  
                      __end_of_I2C1_DO_RX_ACK 20D2                        __end_of_I2C1_DO_TX_ACK 20DA  
                     ??_I2C1_DO_SEND_ADR_READ 0001                             ??_UART_SendString 0004  
                            I2C1_Open@address 0001                                   __pbssCOMRAM 002E  
                        _I2C1_DO_SEND_RESTART 211E                            _UART1_ErrorHandler 0058  
                               __pcstackBANK0 0060                   ??_I2C1_DO_SEND_RESTART_READ 0002  
                       I2C1_DO_TX@retFsmState 0012              __end_of_I2C1_MasterIsStopFlagSet 1FE0  
                    fp__I2C1_DO_BUS_COLLISION 0000                          __end_of_I2C1_DO_IDLE 2094  
               I2C1_SetAddressNackCallback@cb 0006                     _I2C1_MasterIsCountFlagSet 1FF6  
                       _rd2RegCompleteHandler 1D50                     fp__I2C1_DO_SEND_ADR_WRITE 0000  
                      _I2C1_MasterIsRxBufFull 1FB4                        _PIN_MANAGER_Initialize 14C8  
                       _wr2RegCompleteHandler 1DA8                    ??_I2C1_MasterEnableRestart 0001  
                           ?_UART1_Initialize 0001                      rd2RegCompleteHandler@ptr 000A  
        __end_of_UART1_SetFramingErrorHandler 2080                  _UART1_SetFramingErrorHandler 2076  
                              _I2C1_MasterFsm 181E                              fp__I2C1_DO_RESET 0000  
                             ?_I2C1_DO_RX_ACK 0001                               ?_I2C1_DO_TX_ACK 0001  
                          ??_UART1_Initialize 0003                                      _I2C1CON0 3D73  
                                    _I2C1CON1 3D74                                      _I2C1CON2 3D75  
                            _uart1RxLastError 0057                                 ??_UART1_Write 0001  
                     _I2C1_MasterWaitForEvent 1A3A                              _I2C1_MasterClose 2056  
                              _I2C1_SetBuffer 1E96                              _I2C1_MasterWrite 20B2  
                                 __smallconst 1000              _UART1_DefaultOverrunErrorHandler 0000  
                       ?_I2C1_DO_SEND_RESTART 0001                             ?_I2C1_DO_RX_EMPTY 0001  
                    _I2C1_ClearInterruptFlags 1AEE                             ?_I2C1_DO_TX_EMPTY 0001  
                          ??_I2C1_DO_RX_EMPTY 000D              __end_of_I2C1_CallbackReturnReset 212A  
                          ??_I2C1_DO_TX_EMPTY 000D                                      ?_sprintf 001B  
                     ??_rd1RegCompleteHandler 000C                                   _U1ERRIRbits 3DF9  
                     ?_I2C1_DO_SEND_ADR_WRITE 0001                              ?_EEPROM_ReadByte 001C  
                   I2C1_MasterSendTxData@data 0001                                    _I2C1SDAPPS 3AE2  
                                  _I2C1SCLPPS 3AE1                       ??_wr1RegCompleteHandler 000C  
                            _I2C1_SetCallback 18FE         UART1_SetErrorHandler@interruptHandler 0001  
                                  _I2C1_DO_RX 160E                                    _I2C1_DO_TX 1234  
                                    _PIE2bits 3992                                      _PIE3bits 3993  
                                  _I2C1_Close 1DFE                                  ?_I2C1_Poller 0001  
                      __end_of_I2C1_MasterFsm 1890                          fp__I2C1_DO_BUS_ERROR 0000  
                __end_of_I2C1_MasterGetRxData 2100                                 _I2C1STAT1bits 3D78  
                                    _PIR2bits 39A2                                      _PIR3bits 39A3  
                  ??_I2C1_MasterIsNackFlagSet 0001                            _I2C1_MasterSendAck 20F4  
                   _I2C1_DO_SEND_RESTART_READ 204A                        __end_of_I2C1_SetBuffer 1EB8  
               ?_UART1_SetFramingErrorHandler 0001          __end_of_I2C1_SetDataCompleteCallback 1F72  
                _I2C1_SetDataCompleteCallback 1F5A                                     _vfpfcnvrt 109E  
                 ?_I2C1_DO_SEND_RESTART_WRITE 0001                           ?_I2C1_MasterSendAck 0001  
                    ?_I2C1_DO_RX_NACK_RESTART 0001                          fp__I2C1_DO_SEND_STOP 0000  
                  ?_I2C1_MasterClearCountFlag 0001                           I2C1_ReadNBytes@data 0018  
                __end_of_I2C1_DO_ADDRESS_NACK 1A3A                           __end_of_UART1_Write 1F2A  
                    wr2RegCompleteHandler@ptr 000A                __end_of_I2C1_DO_SEND_ADR_WRITE 2020  
                               _I2C1_DO_RESET 202E                                    vfpfcnvrt@c 0016  
                                  vfpfcnvrt@x 0014                         I2C1_Close@returnValue 0001  
                    ?_rdBlkRegCompleteHandler 000A                           I2C1_SetCallback@idx 0005  
                         I2C1_SetCallback@ptr 0003                          ??_I2C1_MasterSendAck 0001  
                      ?_rd2RegCompleteHandler 000A                  __end_of_I2C1_MasterOperation 1B8C  
                      ?_wr2RegCompleteHandler 000A                      _I2C1_MasterIsStopFlagSet 1FCA  
                                    __Hrparam 0000                               ?_I2C1_MasterFsm 0001  
                       _I2C1_MasterGetCounter 20E2                 EEPROM_WriteByte@memoryAddress 001C  
                                  vfprintf@ap 0019                                      __Lrparam 0000  
                                  vfprintf@fp 0017                     ??_I2C1_MasterWaitForEvent 0001  
                       _I2C1_MasterDisableIrq 1ED6                       ??_OSCILLATOR_Initialize 0001  
                             ?_I2C1_SetBuffer 0001                                    ?_vfpfcnvrt 000B  
                      ??_I2C1_DO_SEND_RESTART 0001             __end_of_I2C1_MasterClearCountFlag 211E  
                                  sprintf@fmt 001C                                  _I2C1CON0bits 3D73  
                                _I2C1CON1bits 3D74                                ?_I2C1_DO_RESET 0001  
                                    __ptext10 206C                                      __ptext11 2076  
                                    __ptext20 1F42                                      __ptext12 2080  
                                    __ptext21 20B2                                      __ptext13 1E50  
                                    __ptext30 2020                                      __ptext22 1BD6  
                                    __ptext14 14C8                                      __ptext31 1890  
                                    __ptext23 16A6                                      __ptext15 1F2A  
                                    __ptext40 204A                                      __ptext32 19D4  
                                    __ptext24 1CF6                                      __ptext16 1E74  
                                    __ptext41 1572                                      __ptext33 202E  
                                    __ptext25 20BA                                      __ptext17 1CC6  
                                    __ptext50 1F9E                                      __ptext42 1734  
                                    __ptext34 20C2                                      __ptext26 1B40  
                                    __ptext18 1C5C                                      __ptext51 20E2  
                                    __ptext43 160E                                      __ptext35 203C  
                                    __ptext27 1EF4                                      __ptext19 1A96  
                                    __ptext60 2106                                      __ptext52 20E8  
                                    __ptext44 1234                                      __ptext36 20CA  
                                    __ptext28 1A3A                                      __ptext61 20A8  
                                    __ptext53 20EE                                      __ptext45 200C  
                                    __ptext37 1E28                                      __ptext29 181E  
                                    __ptext70 18FE                                      __ptext62 2126  
                                    __ptext54 20F4                                      __ptext46 1DD4  
                                    __ptext38 211E                                      __ptext71 1E96  
                                    __ptext63 212A                                      __ptext55 1FB4  
                                    __ptext47 208A                                      __ptext39 2122  
                                    __ptext80 1ED6                                      __ptext72 1AEE  
                                    __ptext64 1B8C                                      __ptext56 20FA  
                                    __ptext48 20D2                                      __ptext81 2056  
                                    __ptext73 1FCA                                      __ptext65 1D24  
                                    __ptext57 2094                                      __ptext49 1F88  
                                    __ptext82 20DA                                      __ptext74 1FE0  
                                    __ptext66 1D50                                      __ptext58 209E  
                                    __ptext83 0000                                      __ptext75 1FF6  
                                    __ptext67 1D7C                                      __ptext59 2100  
                                    __ptext76 210C                                      __ptext68 1DA8  
                                    __ptext77 2112                                      __ptext69 1F5A  
                                    __ptext78 2118                                      __ptext79 1DFE  
                       _I2C1_DO_BUS_COLLISION 1890                                    _U1CON0bits 3DF2  
                EEPROM_ReadByte@addressBuffer 001E                 __end_of_UART1_SetErrorHandler 208A  
                EEPROM_ReadByte@memoryAddress 001C                      _I2C1_CallbackReturnReset 2126  
                 fp__I2C1_CallbackReturnReset 0000                      ?_I2C1_MasterIsTxBufEmpty 0001  
                                 ?_I2C1_DO_RX 0001                                   ?_I2C1_DO_TX 0001  
                             _UART_SendString 17AC                   __end_of_I2C1_MasterClearIrq 20E2  
                __end_of_I2C1_DO_RX_NACK_STOP 204A                                   ?_I2C1_Close 0001  
                   _UART1_OverrunErrorHandler 005A  UART1_SetOverrunErrorHandler@interruptHandler 0001  
                                    isa$xinst 0000                     ?_I2C1_MasterClearNackFlag 0001  
             __end_of_I2C1_DO_RX_NACK_RESTART 20CA                      I2C1_MasterOperation@read 0016  
                                    _vfprintf 1C1A                            I2C1_ReadNBytes@len 0019  
               __end_of_I2C1_DO_SEND_ADR_READ 1DFE                                  _I2C1_DO_IDLE 208A  
                                 _UART1_Write 1F10                   __end_of_I2C1_MasterSendNack 20F4  
              ??_UART1_SetFramingErrorHandler 0003                   __end_of_I2C1_MasterResetBus 20B2  
               fp__I2C1_DO_SEND_RESTART_WRITE 0000                I2C1_SetAddressNackCallback@ptr 0008  
                       _I2C1_MasterSetCounter 209E                          _I2C1_MasterGetRxData 20FA  
                       _I2C1_MasterSendTxData 2094                     ?_I2C1_MasterClearStopFlag 0001  
                                   sprintf@ap 001F                      __end_of_I2C1_MasterClose 2062  
                     ?_I2C1_MasterIsRxBufFull 0001                       ?_PIN_MANAGER_Initialize 0001  
                    __end_of_I2C1_MasterWrite 20BA                       I2C1_WriteNBytes@address 001B  
                            ??_I2C1_DO_RX_ACK 0001                              ??_I2C1_DO_TX_ACK 0001  
                      ?_I2C1_MasterGetCounter 0001                       _I2C1_CallbackReturnStop 212A  
                  fp__I2C1_CallbackReturnStop 0000                           EEPROM_ReadByte@data 0021  
                        _I2C1_DO_ADDRESS_NACK 19D4                        ?_I2C1_MasterDisableIrq 0001  
                            _I2C1_WriteNBytes 1A96  UART1_SetFramingErrorHandler@interruptHandler 0001  
                  ??_I2C1_ClearInterruptFlags 0001                                   ??_vfpfcnvrt 000E  
                    __end_of_I2C1_SetCallback 196C                                      sprintf@f 0020  
                                    sprintf@s 001B                               ??_I2C1_DO_RESET 0001  
                        _I2C1_MasterOperation 1B40                         ?_I2C1_MasterGetRxData 0001  
                      ?_I2C1_DO_BUS_COLLISION 0001               __end_of_I2C1_MasterIsTxBufEmpty 1F9E  
                     __end_of_UART_SendString 181E                __end_of_I2C1_MasterIsRxBufFull 1FCA  
              __end_of_PIN_MANAGER_Initialize 1572                 __end_of_rd1RegCompleteHandler 1DA8  
                            _EEPROM_WriteByte 1CC6                 __end_of_wr1RegCompleteHandler 1D50  
                       ?_I2C1_DO_ADDRESS_NACK 0001  
